
AVRASM ver. 2.1.30  E:\AVR\SD-WC\List\DWS.asm Tue Jul 31 15:29:03 2012

E:\AVR\SD-WC\List\DWS.asm(1061): warning: Register r3 already defined by the .DEF directive
E:\AVR\SD-WC\List\DWS.asm(1062): warning: Register r5 already defined by the .DEF directive
E:\AVR\SD-WC\List\DWS.asm(1063): warning: Register r8 already defined by the .DEF directive
E:\AVR\SD-WC\List\DWS.asm(1064): warning: Register r7 already defined by the .DEF directive
E:\AVR\SD-WC\List\DWS.asm(1065): warning: Register r9 already defined by the .DEF directive
                 
                 
                 ;CodeVisionAVR C Compiler V2.05.0 Professional
                 ;(C) Copyright 1998-2010 Pavel Haiduc, HP InfoTech s.r.l.
                 ;http://www.hpinfotech.com
                 
                 ;Chip type                : ATmega164PV
                 ;Program type             : Application
                 ;Clock frequency          : 7,372800 MHz
                 ;Memory model             : Small
                 ;Optimize for             : Size
                 ;(s)printf features       : int, width
                 ;(s)scanf features        : int, width
                 ;External RAM size        : 0
                 ;Data Stack size          : 256 byte(s)
                 ;Heap size                : 0 byte(s)
                 ;Promote 'char' to 'int'  : Yes
                 ;'char' is unsigned       : Yes
                 ;8 bit enums              : Yes
                 ;global 'const' stored in FLASH: No
                 ;Enhanced core instructions    : On
                 ;Smart register allocation     : On
                 ;Automatic register allocation : On
                 
                 	#pragma AVRPART ADMIN PART_NAME ATmega164PV
                 	#pragma AVRPART MEMORY PROG_FLASH 16384
                 	#pragma AVRPART MEMORY EEPROM 512
                 	#pragma AVRPART MEMORY INT_SRAM SIZE 1279
                 	#pragma AVRPART MEMORY INT_SRAM START_ADDR 0x100
                 
                 	#define CALL_SUPPORTED 1
                 
                 	.LISTMAC
                 	.EQU EERE=0x0
                 	.EQU EEWE=0x1
                 	.EQU EEMWE=0x2
                 	.EQU UDRE=0x5
                 	.EQU RXC=0x7
                 	.EQU EECR=0x1F
                 	.EQU EEDR=0x20
                 	.EQU EEARL=0x21
                 	.EQU EEARH=0x22
                 	.EQU SPSR=0x2D
                 	.EQU SPDR=0x2E
                 	.EQU SMCR=0x33
                 	.EQU MCUSR=0x34
                 	.EQU MCUCR=0x35
                 	.EQU WDTCSR=0x60
                 	.EQU UCSR0A=0xC0
                 	.EQU UDR0=0xC6
                 	.EQU SPL=0x3D
                 	.EQU SPH=0x3E
                 	.EQU SREG=0x3F
                 	.EQU GPIOR0=0x1E
                 
                 	.DEF R0X0=R0
                 	.DEF R0X1=R1
                 	.DEF R0X2=R2
                 	.DEF R0X3=R3
                 	.DEF R0X4=R4
                 	.DEF R0X5=R5
                 	.DEF R0X6=R6
                 	.DEF R0X7=R7
                 	.DEF R0X8=R8
                 	.DEF R0X9=R9
                 	.DEF R0XA=R10
                 	.DEF R0XB=R11
                 	.DEF R0XC=R12
                 	.DEF R0XD=R13
                 	.DEF R0XE=R14
                 	.DEF R0XF=R15
                 	.DEF R0X10=R16
                 	.DEF R0X11=R17
                 	.DEF R0X12=R18
                 	.DEF R0X13=R19
                 	.DEF R0X14=R20
                 	.DEF R0X15=R21
                 	.DEF R0X16=R22
                 	.DEF R0X17=R23
                 	.DEF R0X18=R24
                 	.DEF R0X19=R25
                 	.DEF R0X1A=R26
                 	.DEF R0X1B=R27
                 	.DEF R0X1C=R28
                 	.DEF R0X1D=R29
                 	.DEF R0X1E=R30
                 	.DEF R0X1F=R31
                 
                 	.EQU __SRAM_START=0x0100
                 	.EQU __SRAM_END=0x04FF
                 	.EQU __DSTACK_SIZE=0x0100
                 	.EQU __HEAP_SIZE=0x0000
                 	.EQU __CLEAR_SRAM_SIZE=__SRAM_END-__SRAM_START+1
                 
                 	.MACRO __CPD1N
                 	CPI  R30,LOW(@0)
                 	LDI  R26,HIGH(@0)
                 	CPC  R31,R26
                 	LDI  R26,BYTE3(@0)
                 	CPC  R22,R26
                 	LDI  R26,BYTE4(@0)
                 	CPC  R23,R26
                 	.ENDM
                 
                 	.MACRO __CPD2N
                 	CPI  R26,LOW(@0)
                 	LDI  R30,HIGH(@0)
                 	CPC  R27,R30
                 	LDI  R30,BYTE3(@0)
                 	CPC  R24,R30
                 	LDI  R30,BYTE4(@0)
                 	CPC  R25,R30
                 	.ENDM
                 
                 	.MACRO __CPWRR
                 	CP   R@0,R@2
                 	CPC  R@1,R@3
                 	.ENDM
                 
                 	.MACRO __CPWRN
                 	CPI  R@0,LOW(@2)
                 	LDI  R30,HIGH(@2)
                 	CPC  R@1,R30
                 	.ENDM
                 
                 	.MACRO __ADDB1MN
                 	SUBI R30,LOW(-@0-(@1))
                 	.ENDM
                 
                 	.MACRO __ADDB2MN
                 	SUBI R26,LOW(-@0-(@1))
                 	.ENDM
                 
                 	.MACRO __ADDW1MN
                 	SUBI R30,LOW(-@0-(@1))
                 	SBCI R31,HIGH(-@0-(@1))
                 	.ENDM
                 
                 	.MACRO __ADDW2MN
                 	SUBI R26,LOW(-@0-(@1))
                 	SBCI R27,HIGH(-@0-(@1))
                 	.ENDM
                 
                 	.MACRO __ADDW1FN
                 	SUBI R30,LOW(-2*@0-(@1))
                 	SBCI R31,HIGH(-2*@0-(@1))
                 	.ENDM
                 
                 	.MACRO __ADDD1FN
                 	SUBI R30,LOW(-2*@0-(@1))
                 	SBCI R31,HIGH(-2*@0-(@1))
                 	SBCI R22,BYTE3(-2*@0-(@1))
                 	.ENDM
                 
                 	.MACRO __ADDD1N
                 	SUBI R30,LOW(-@0)
                 	SBCI R31,HIGH(-@0)
                 	SBCI R22,BYTE3(-@0)
                 	SBCI R23,BYTE4(-@0)
                 	.ENDM
                 
                 	.MACRO __ADDD2N
                 	SUBI R26,LOW(-@0)
                 	SBCI R27,HIGH(-@0)
                 	SBCI R24,BYTE3(-@0)
                 	SBCI R25,BYTE4(-@0)
                 	.ENDM
                 
                 	.MACRO __SUBD1N
                 	SUBI R30,LOW(@0)
                 	SBCI R31,HIGH(@0)
                 	SBCI R22,BYTE3(@0)
                 	SBCI R23,BYTE4(@0)
                 	.ENDM
                 
                 	.MACRO __SUBD2N
                 	SUBI R26,LOW(@0)
                 	SBCI R27,HIGH(@0)
                 	SBCI R24,BYTE3(@0)
                 	SBCI R25,BYTE4(@0)
                 	.ENDM
                 
                 	.MACRO __ANDBMNN
                 	LDS  R30,@0+(@1)
                 	ANDI R30,LOW(@2)
                 	STS  @0+(@1),R30
                 	.ENDM
                 
                 	.MACRO __ANDWMNN
                 	LDS  R30,@0+(@1)
                 	ANDI R30,LOW(@2)
                 	STS  @0+(@1),R30
                 	LDS  R30,@0+(@1)+1
                 	ANDI R30,HIGH(@2)
                 	STS  @0+(@1)+1,R30
                 	.ENDM
                 
                 	.MACRO __ANDD1N
                 	ANDI R30,LOW(@0)
                 	ANDI R31,HIGH(@0)
                 	ANDI R22,BYTE3(@0)
                 	ANDI R23,BYTE4(@0)
                 	.ENDM
                 
                 	.MACRO __ANDD2N
                 	ANDI R26,LOW(@0)
                 	ANDI R27,HIGH(@0)
                 	ANDI R24,BYTE3(@0)
                 	ANDI R25,BYTE4(@0)
                 	.ENDM
                 
                 	.MACRO __ORBMNN
                 	LDS  R30,@0+(@1)
                 	ORI  R30,LOW(@2)
                 	STS  @0+(@1),R30
                 	.ENDM
                 
                 	.MACRO __ORWMNN
                 	LDS  R30,@0+(@1)
                 	ORI  R30,LOW(@2)
                 	STS  @0+(@1),R30
                 	LDS  R30,@0+(@1)+1
                 	ORI  R30,HIGH(@2)
                 	STS  @0+(@1)+1,R30
                 	.ENDM
                 
                 	.MACRO __ORD1N
                 	ORI  R30,LOW(@0)
                 	ORI  R31,HIGH(@0)
                 	ORI  R22,BYTE3(@0)
                 	ORI  R23,BYTE4(@0)
                 	.ENDM
                 
                 	.MACRO __ORD2N
                 	ORI  R26,LOW(@0)
                 	ORI  R27,HIGH(@0)
                 	ORI  R24,BYTE3(@0)
                 	ORI  R25,BYTE4(@0)
                 	.ENDM
                 
                 	.MACRO __DELAY_USB
                 	LDI  R24,LOW(@0)
                 __DELAY_USB_LOOP:
                 	DEC  R24
                 	BRNE __DELAY_USB_LOOP
                 	.ENDM
                 
                 	.MACRO __DELAY_USW
                 	LDI  R24,LOW(@0)
                 	LDI  R25,HIGH(@0)
                 __DELAY_USW_LOOP:
                 	SBIW R24,1
                 	BRNE __DELAY_USW_LOOP
                 	.ENDM
                 
                 	.MACRO __GETD1S
                 	LDD  R30,Y+@0
                 	LDD  R31,Y+@0+1
                 	LDD  R22,Y+@0+2
                 	LDD  R23,Y+@0+3
                 	.ENDM
                 
                 	.MACRO __GETD2S
                 	LDD  R26,Y+@0
                 	LDD  R27,Y+@0+1
                 	LDD  R24,Y+@0+2
                 	LDD  R25,Y+@0+3
                 	.ENDM
                 
                 	.MACRO __PUTD1S
                 	STD  Y+@0,R30
                 	STD  Y+@0+1,R31
                 	STD  Y+@0+2,R22
                 	STD  Y+@0+3,R23
                 	.ENDM
                 
                 	.MACRO __PUTD2S
                 	STD  Y+@0,R26
                 	STD  Y+@0+1,R27
                 	STD  Y+@0+2,R24
                 	STD  Y+@0+3,R25
                 	.ENDM
                 
                 	.MACRO __PUTDZ2
                 	STD  Z+@0,R26
                 	STD  Z+@0+1,R27
                 	STD  Z+@0+2,R24
                 	STD  Z+@0+3,R25
                 	.ENDM
                 
                 	.MACRO __CLRD1S
                 	STD  Y+@0,R30
                 	STD  Y+@0+1,R30
                 	STD  Y+@0+2,R30
                 	STD  Y+@0+3,R30
                 	.ENDM
                 
                 	.MACRO __POINTB1MN
                 	LDI  R30,LOW(@0+(@1))
                 	.ENDM
                 
                 	.MACRO __POINTW1MN
                 	LDI  R30,LOW(@0+(@1))
                 	LDI  R31,HIGH(@0+(@1))
                 	.ENDM
                 
                 	.MACRO __POINTD1M
                 	LDI  R30,LOW(@0)
                 	LDI  R31,HIGH(@0)
                 	LDI  R22,BYTE3(@0)
                 	LDI  R23,BYTE4(@0)
                 	.ENDM
                 
                 	.MACRO __POINTW1FN
                 	LDI  R30,LOW(2*@0+(@1))
                 	LDI  R31,HIGH(2*@0+(@1))
                 	.ENDM
                 
                 	.MACRO __POINTD1FN
                 	LDI  R30,LOW(2*@0+(@1))
                 	LDI  R31,HIGH(2*@0+(@1))
                 	LDI  R22,BYTE3(2*@0+(@1))
                 	LDI  R23,BYTE4(2*@0+(@1))
                 	.ENDM
                 
                 	.MACRO __POINTB2MN
                 	LDI  R26,LOW(@0+(@1))
                 	.ENDM
                 
                 	.MACRO __POINTW2MN
                 	LDI  R26,LOW(@0+(@1))
                 	LDI  R27,HIGH(@0+(@1))
                 	.ENDM
                 
                 	.MACRO __POINTBRM
                 	LDI  R@0,LOW(@1)
                 	.ENDM
                 
                 	.MACRO __POINTWRM
                 	LDI  R@0,LOW(@2)
                 	LDI  R@1,HIGH(@2)
                 	.ENDM
                 
                 	.MACRO __POINTBRMN
                 	LDI  R@0,LOW(@1+(@2))
                 	.ENDM
                 
                 	.MACRO __POINTWRMN
                 	LDI  R@0,LOW(@2+(@3))
                 	LDI  R@1,HIGH(@2+(@3))
                 	.ENDM
                 
                 	.MACRO __POINTWRFN
                 	LDI  R@0,LOW(@2*2+(@3))
                 	LDI  R@1,HIGH(@2*2+(@3))
                 	.ENDM
                 
                 	.MACRO __GETD1N
                 	LDI  R30,LOW(@0)
                 	LDI  R31,HIGH(@0)
                 	LDI  R22,BYTE3(@0)
                 	LDI  R23,BYTE4(@0)
                 	.ENDM
                 
                 	.MACRO __GETD2N
                 	LDI  R26,LOW(@0)
                 	LDI  R27,HIGH(@0)
                 	LDI  R24,BYTE3(@0)
                 	LDI  R25,BYTE4(@0)
                 	.ENDM
                 
                 	.MACRO __GETB1MN
                 	LDS  R30,@0+(@1)
                 	.ENDM
                 
                 	.MACRO __GETB1HMN
                 	LDS  R31,@0+(@1)
                 	.ENDM
                 
                 	.MACRO __GETW1MN
                 	LDS  R30,@0+(@1)
                 	LDS  R31,@0+(@1)+1
                 	.ENDM
                 
                 	.MACRO __GETD1MN
                 	LDS  R30,@0+(@1)
                 	LDS  R31,@0+(@1)+1
                 	LDS  R22,@0+(@1)+2
                 	LDS  R23,@0+(@1)+3
                 	.ENDM
                 
                 	.MACRO __GETBRMN
                 	LDS  R@0,@1+(@2)
                 	.ENDM
                 
                 	.MACRO __GETWRMN
                 	LDS  R@0,@2+(@3)
                 	LDS  R@1,@2+(@3)+1
                 	.ENDM
                 
                 	.MACRO __GETWRZ
                 	LDD  R@0,Z+@2
                 	LDD  R@1,Z+@2+1
                 	.ENDM
                 
                 	.MACRO __GETD2Z
                 	LDD  R26,Z+@0
                 	LDD  R27,Z+@0+1
                 	LDD  R24,Z+@0+2
                 	LDD  R25,Z+@0+3
                 	.ENDM
                 
                 	.MACRO __GETB2MN
                 	LDS  R26,@0+(@1)
                 	.ENDM
                 
                 	.MACRO __GETW2MN
                 	LDS  R26,@0+(@1)
                 	LDS  R27,@0+(@1)+1
                 	.ENDM
                 
                 	.MACRO __GETD2MN
                 	LDS  R26,@0+(@1)
                 	LDS  R27,@0+(@1)+1
                 	LDS  R24,@0+(@1)+2
                 	LDS  R25,@0+(@1)+3
                 	.ENDM
                 
                 	.MACRO __PUTB1MN
                 	STS  @0+(@1),R30
                 	.ENDM
                 
                 	.MACRO __PUTW1MN
                 	STS  @0+(@1),R30
                 	STS  @0+(@1)+1,R31
                 	.ENDM
                 
                 	.MACRO __PUTD1MN
                 	STS  @0+(@1),R30
                 	STS  @0+(@1)+1,R31
                 	STS  @0+(@1)+2,R22
                 	STS  @0+(@1)+3,R23
                 	.ENDM
                 
                 	.MACRO __PUTB1EN
                 	LDI  R26,LOW(@0+(@1))
                 	LDI  R27,HIGH(@0+(@1))
                 	CALL __EEPROMWRB
                 	.ENDM
                 
                 	.MACRO __PUTW1EN
                 	LDI  R26,LOW(@0+(@1))
                 	LDI  R27,HIGH(@0+(@1))
                 	CALL __EEPROMWRW
                 	.ENDM
                 
                 	.MACRO __PUTD1EN
                 	LDI  R26,LOW(@0+(@1))
                 	LDI  R27,HIGH(@0+(@1))
                 	CALL __EEPROMWRD
                 	.ENDM
                 
                 	.MACRO __PUTBR0MN
                 	STS  @0+(@1),R0
                 	.ENDM
                 
                 	.MACRO __PUTBMRN
                 	STS  @0+(@1),R@2
                 	.ENDM
                 
                 	.MACRO __PUTWMRN
                 	STS  @0+(@1),R@2
                 	STS  @0+(@1)+1,R@3
                 	.ENDM
                 
                 	.MACRO __PUTBZR
                 	STD  Z+@1,R@0
                 	.ENDM
                 
                 	.MACRO __PUTWZR
                 	STD  Z+@2,R@0
                 	STD  Z+@2+1,R@1
                 	.ENDM
                 
                 	.MACRO __GETW1R
                 	MOV  R30,R@0
                 	MOV  R31,R@1
                 	.ENDM
                 
                 	.MACRO __GETW2R
                 	MOV  R26,R@0
                 	MOV  R27,R@1
                 	.ENDM
                 
                 	.MACRO __GETWRN
                 	LDI  R@0,LOW(@2)
                 	LDI  R@1,HIGH(@2)
                 	.ENDM
                 
                 	.MACRO __PUTW1R
                 	MOV  R@0,R30
                 	MOV  R@1,R31
                 	.ENDM
                 
                 	.MACRO __PUTW2R
                 	MOV  R@0,R26
                 	MOV  R@1,R27
                 	.ENDM
                 
                 	.MACRO __ADDWRN
                 	SUBI R@0,LOW(-@2)
                 	SBCI R@1,HIGH(-@2)
                 	.ENDM
                 
                 	.MACRO __ADDWRR
                 	ADD  R@0,R@2
                 	ADC  R@1,R@3
                 	.ENDM
                 
                 	.MACRO __SUBWRN
                 	SUBI R@0,LOW(@2)
                 	SBCI R@1,HIGH(@2)
                 	.ENDM
                 
                 	.MACRO __SUBWRR
                 	SUB  R@0,R@2
                 	SBC  R@1,R@3
                 	.ENDM
                 
                 	.MACRO __ANDWRN
                 	ANDI R@0,LOW(@2)
                 	ANDI R@1,HIGH(@2)
                 	.ENDM
                 
                 	.MACRO __ANDWRR
                 	AND  R@0,R@2
                 	AND  R@1,R@3
                 	.ENDM
                 
                 	.MACRO __ORWRN
                 	ORI  R@0,LOW(@2)
                 	ORI  R@1,HIGH(@2)
                 	.ENDM
                 
                 	.MACRO __ORWRR
                 	OR   R@0,R@2
                 	OR   R@1,R@3
                 	.ENDM
                 
                 	.MACRO __EORWRR
                 	EOR  R@0,R@2
                 	EOR  R@1,R@3
                 	.ENDM
                 
                 	.MACRO __GETWRS
                 	LDD  R@0,Y+@2
                 	LDD  R@1,Y+@2+1
                 	.ENDM
                 
                 	.MACRO __PUTBSR
                 	STD  Y+@1,R@0
                 	.ENDM
                 
                 	.MACRO __PUTWSR
                 	STD  Y+@2,R@0
                 	STD  Y+@2+1,R@1
                 	.ENDM
                 
                 	.MACRO __MOVEWRR
                 	MOV  R@0,R@2
                 	MOV  R@1,R@3
                 	.ENDM
                 
                 	.MACRO __INWR
                 	IN   R@0,@2
                 	IN   R@1,@2+1
                 	.ENDM
                 
                 	.MACRO __OUTWR
                 	OUT  @2+1,R@1
                 	OUT  @2,R@0
                 	.ENDM
                 
                 	.MACRO __CALL1MN
                 	LDS  R30,@0+(@1)
                 	LDS  R31,@0+(@1)+1
                 	ICALL
                 	.ENDM
                 
                 	.MACRO __CALL1FN
                 	LDI  R30,LOW(2*@0+(@1))
                 	LDI  R31,HIGH(2*@0+(@1))
                 	CALL __GETW1PF
                 	ICALL
                 	.ENDM
                 
                 	.MACRO __CALL2EN
                 	LDI  R26,LOW(@0+(@1))
                 	LDI  R27,HIGH(@0+(@1))
                 	CALL __EEPROMRDW
                 	ICALL
                 	.ENDM
                 
                 	.MACRO __GETW1STACK
                 	IN   R26,SPL
                 	IN   R27,SPH
                 	ADIW R26,@0+1
                 	LD   R30,X+
                 	LD   R31,X
                 	.ENDM
                 
                 	.MACRO __GETD1STACK
                 	IN   R26,SPL
                 	IN   R27,SPH
                 	ADIW R26,@0+1
                 	LD   R30,X+
                 	LD   R31,X+
                 	LD   R22,X
                 	.ENDM
                 
                 	.MACRO __NBST
                 	BST  R@0,@1
                 	IN   R30,SREG
                 	LDI  R31,0x40
                 	EOR  R30,R31
                 	OUT  SREG,R30
                 	.ENDM
                 
                 
                 	.MACRO __PUTB1SN
                 	LDD  R26,Y+@0
                 	LDD  R27,Y+@0+1
                 	SUBI R26,LOW(-@1)
                 	SBCI R27,HIGH(-@1)
                 	ST   X,R30
                 	.ENDM
                 
                 	.MACRO __PUTW1SN
                 	LDD  R26,Y+@0
                 	LDD  R27,Y+@0+1
                 	SUBI R26,LOW(-@1)
                 	SBCI R27,HIGH(-@1)
                 	ST   X+,R30
                 	ST   X,R31
                 	.ENDM
                 
                 	.MACRO __PUTD1SN
                 	LDD  R26,Y+@0
                 	LDD  R27,Y+@0+1
                 	SUBI R26,LOW(-@1)
                 	SBCI R27,HIGH(-@1)
                 	CALL __PUTDP1
                 	.ENDM
                 
                 	.MACRO __PUTB1SNS
                 	LDD  R26,Y+@0
                 	LDD  R27,Y+@0+1
                 	ADIW R26,@1
                 	ST   X,R30
                 	.ENDM
                 
                 	.MACRO __PUTW1SNS
                 	LDD  R26,Y+@0
                 	LDD  R27,Y+@0+1
                 	ADIW R26,@1
                 	ST   X+,R30
                 	ST   X,R31
                 	.ENDM
                 
                 	.MACRO __PUTD1SNS
                 	LDD  R26,Y+@0
                 	LDD  R27,Y+@0+1
                 	ADIW R26,@1
                 	CALL __PUTDP1
                 	.ENDM
                 
                 	.MACRO __PUTB1PMN
                 	LDS  R26,@0
                 	LDS  R27,@0+1
                 	SUBI R26,LOW(-@1)
                 	SBCI R27,HIGH(-@1)
                 	ST   X,R30
                 	.ENDM
                 
                 	.MACRO __PUTW1PMN
                 	LDS  R26,@0
                 	LDS  R27,@0+1
                 	SUBI R26,LOW(-@1)
                 	SBCI R27,HIGH(-@1)
                 	ST   X+,R30
                 	ST   X,R31
                 	.ENDM
                 
                 	.MACRO __PUTD1PMN
                 	LDS  R26,@0
                 	LDS  R27,@0+1
                 	SUBI R26,LOW(-@1)
                 	SBCI R27,HIGH(-@1)
                 	CALL __PUTDP1
                 	.ENDM
                 
                 	.MACRO __PUTB1PMNS
                 	LDS  R26,@0
                 	LDS  R27,@0+1
                 	ADIW R26,@1
                 	ST   X,R30
                 	.ENDM
                 
                 	.MACRO __PUTW1PMNS
                 	LDS  R26,@0
                 	LDS  R27,@0+1
                 	ADIW R26,@1
                 	ST   X+,R30
                 	ST   X,R31
                 	.ENDM
                 
                 	.MACRO __PUTD1PMNS
                 	LDS  R26,@0
                 	LDS  R27,@0+1
                 	ADIW R26,@1
                 	CALL __PUTDP1
                 	.ENDM
                 
                 	.MACRO __PUTB1RN
                 	MOVW R26,R@0
                 	SUBI R26,LOW(-@1)
                 	SBCI R27,HIGH(-@1)
                 	ST   X,R30
                 	.ENDM
                 
                 	.MACRO __PUTW1RN
                 	MOVW R26,R@0
                 	SUBI R26,LOW(-@1)
                 	SBCI R27,HIGH(-@1)
                 	ST   X+,R30
                 	ST   X,R31
                 	.ENDM
                 
                 	.MACRO __PUTD1RN
                 	MOVW R26,R@0
                 	SUBI R26,LOW(-@1)
                 	SBCI R27,HIGH(-@1)
                 	CALL __PUTDP1
                 	.ENDM
                 
                 	.MACRO __PUTB1RNS
                 	MOVW R26,R@0
                 	ADIW R26,@1
                 	ST   X,R30
                 	.ENDM
                 
                 	.MACRO __PUTW1RNS
                 	MOVW R26,R@0
                 	ADIW R26,@1
                 	ST   X+,R30
                 	ST   X,R31
                 	.ENDM
                 
                 	.MACRO __PUTD1RNS
                 	MOVW R26,R@0
                 	ADIW R26,@1
                 	CALL __PUTDP1
                 	.ENDM
                 
                 	.MACRO __PUTB1RON
                 	MOV  R26,R@0
                 	MOV  R27,R@1
                 	SUBI R26,LOW(-@2)
                 	SBCI R27,HIGH(-@2)
                 	ST   X,R30
                 	.ENDM
                 
                 	.MACRO __PUTW1RON
                 	MOV  R26,R@0
                 	MOV  R27,R@1
                 	SUBI R26,LOW(-@2)
                 	SBCI R27,HIGH(-@2)
                 	ST   X+,R30
                 	ST   X,R31
                 	.ENDM
                 
                 	.MACRO __PUTD1RON
                 	MOV  R26,R@0
                 	MOV  R27,R@1
                 	SUBI R26,LOW(-@2)
                 	SBCI R27,HIGH(-@2)
                 	CALL __PUTDP1
                 	.ENDM
                 
                 	.MACRO __PUTB1RONS
                 	MOV  R26,R@0
                 	MOV  R27,R@1
                 	ADIW R26,@2
                 	ST   X,R30
                 	.ENDM
                 
                 	.MACRO __PUTW1RONS
                 	MOV  R26,R@0
                 	MOV  R27,R@1
                 	ADIW R26,@2
                 	ST   X+,R30
                 	ST   X,R31
                 	.ENDM
                 
                 	.MACRO __PUTD1RONS
                 	MOV  R26,R@0
                 	MOV  R27,R@1
                 	ADIW R26,@2
                 	CALL __PUTDP1
                 	.ENDM
                 
                 
                 	.MACRO __GETB1SX
                 	MOVW R30,R28
                 	SUBI R30,LOW(-@0)
                 	SBCI R31,HIGH(-@0)
                 	LD   R30,Z
                 	.ENDM
                 
                 	.MACRO __GETB1HSX
                 	MOVW R30,R28
                 	SUBI R30,LOW(-@0)
                 	SBCI R31,HIGH(-@0)
                 	LD   R31,Z
                 	.ENDM
                 
                 	.MACRO __GETW1SX
                 	MOVW R30,R28
                 	SUBI R30,LOW(-@0)
                 	SBCI R31,HIGH(-@0)
                 	LD   R0,Z+
                 	LD   R31,Z
                 	MOV  R30,R0
                 	.ENDM
                 
                 	.MACRO __GETD1SX
                 	MOVW R30,R28
                 	SUBI R30,LOW(-@0)
                 	SBCI R31,HIGH(-@0)
                 	LD   R0,Z+
                 	LD   R1,Z+
                 	LD   R22,Z+
                 	LD   R23,Z
                 	MOVW R30,R0
                 	.ENDM
                 
                 	.MACRO __GETB2SX
                 	MOVW R26,R28
                 	SUBI R26,LOW(-@0)
                 	SBCI R27,HIGH(-@0)
                 	LD   R26,X
                 	.ENDM
                 
                 	.MACRO __GETW2SX
                 	MOVW R26,R28
                 	SUBI R26,LOW(-@0)
                 	SBCI R27,HIGH(-@0)
                 	LD   R0,X+
                 	LD   R27,X
                 	MOV  R26,R0
                 	.ENDM
                 
                 	.MACRO __GETD2SX
                 	MOVW R26,R28
                 	SUBI R26,LOW(-@0)
                 	SBCI R27,HIGH(-@0)
                 	LD   R0,X+
                 	LD   R1,X+
                 	LD   R24,X+
                 	LD   R25,X
                 	MOVW R26,R0
                 	.ENDM
                 
                 	.MACRO __GETBRSX
                 	MOVW R30,R28
                 	SUBI R30,LOW(-@1)
                 	SBCI R31,HIGH(-@1)
                 	LD   R@0,Z
                 	.ENDM
                 
                 	.MACRO __GETWRSX
                 	MOVW R30,R28
                 	SUBI R30,LOW(-@2)
                 	SBCI R31,HIGH(-@2)
                 	LD   R@0,Z+
                 	LD   R@1,Z
                 	.ENDM
                 
                 	.MACRO __GETBRSX2
                 	MOVW R26,R28
                 	SUBI R26,LOW(-@1)
                 	SBCI R27,HIGH(-@1)
                 	LD   R@0,X
                 	.ENDM
                 
                 	.MACRO __GETWRSX2
                 	MOVW R26,R28
                 	SUBI R26,LOW(-@2)
                 	SBCI R27,HIGH(-@2)
                 	LD   R@0,X+
                 	LD   R@1,X
                 	.ENDM
                 
                 	.MACRO __LSLW8SX
                 	MOVW R30,R28
                 	SUBI R30,LOW(-@0)
                 	SBCI R31,HIGH(-@0)
                 	LD   R31,Z
                 	CLR  R30
                 	.ENDM
                 
                 	.MACRO __PUTB1SX
                 	MOVW R26,R28
                 	SUBI R26,LOW(-@0)
                 	SBCI R27,HIGH(-@0)
                 	ST   X,R30
                 	.ENDM
                 
                 	.MACRO __PUTW1SX
                 	MOVW R26,R28
                 	SUBI R26,LOW(-@0)
                 	SBCI R27,HIGH(-@0)
                 	ST   X+,R30
                 	ST   X,R31
                 	.ENDM
                 
                 	.MACRO __PUTD1SX
                 	MOVW R26,R28
                 	SUBI R26,LOW(-@0)
                 	SBCI R27,HIGH(-@0)
                 	ST   X+,R30
                 	ST   X+,R31
                 	ST   X+,R22
                 	ST   X,R23
                 	.ENDM
                 
                 	.MACRO __CLRW1SX
                 	MOVW R26,R28
                 	SUBI R26,LOW(-@0)
                 	SBCI R27,HIGH(-@0)
                 	ST   X+,R30
                 	ST   X,R30
                 	.ENDM
                 
                 	.MACRO __CLRD1SX
                 	MOVW R26,R28
                 	SUBI R26,LOW(-@0)
                 	SBCI R27,HIGH(-@0)
                 	ST   X+,R30
                 	ST   X+,R30
                 	ST   X+,R30
                 	ST   X,R30
                 	.ENDM
                 
                 	.MACRO __PUTB2SX
                 	MOVW R30,R28
                 	SUBI R30,LOW(-@0)
                 	SBCI R31,HIGH(-@0)
                 	ST   Z,R26
                 	.ENDM
                 
                 	.MACRO __PUTW2SX
                 	MOVW R30,R28
                 	SUBI R30,LOW(-@0)
                 	SBCI R31,HIGH(-@0)
                 	ST   Z+,R26
                 	ST   Z,R27
                 	.ENDM
                 
                 	.MACRO __PUTD2SX
                 	MOVW R30,R28
                 	SUBI R30,LOW(-@0)
                 	SBCI R31,HIGH(-@0)
                 	ST   Z+,R26
                 	ST   Z+,R27
                 	ST   Z+,R24
                 	ST   Z,R25
                 	.ENDM
                 
                 	.MACRO __PUTBSRX
                 	MOVW R30,R28
                 	SUBI R30,LOW(-@1)
                 	SBCI R31,HIGH(-@1)
                 	ST   Z,R@0
                 	.ENDM
                 
                 	.MACRO __PUTWSRX
                 	MOVW R30,R28
                 	SUBI R30,LOW(-@2)
                 	SBCI R31,HIGH(-@2)
                 	ST   Z+,R@0
                 	ST   Z,R@1
                 	.ENDM
                 
                 	.MACRO __PUTB1SNX
                 	MOVW R26,R28
                 	SUBI R26,LOW(-@0)
                 	SBCI R27,HIGH(-@0)
                 	LD   R0,X+
                 	LD   R27,X
                 	MOV  R26,R0
                 	SUBI R26,LOW(-@1)
                 	SBCI R27,HIGH(-@1)
                 	ST   X,R30
                 	.ENDM
                 
                 	.MACRO __PUTW1SNX
                 	MOVW R26,R28
                 	SUBI R26,LOW(-@0)
                 	SBCI R27,HIGH(-@0)
                 	LD   R0,X+
                 	LD   R27,X
                 	MOV  R26,R0
                 	SUBI R26,LOW(-@1)
                 	SBCI R27,HIGH(-@1)
                 	ST   X+,R30
                 	ST   X,R31
                 	.ENDM
                 
                 	.MACRO __PUTD1SNX
                 	MOVW R26,R28
                 	SUBI R26,LOW(-@0)
                 	SBCI R27,HIGH(-@0)
                 	LD   R0,X+
                 	LD   R27,X
                 	MOV  R26,R0
                 	SUBI R26,LOW(-@1)
                 	SBCI R27,HIGH(-@1)
                 	ST   X+,R30
                 	ST   X+,R31
                 	ST   X+,R22
                 	ST   X,R23
                 	.ENDM
                 
                 	.MACRO __MULBRR
                 	MULS R@0,R@1
                 	MOVW R30,R0
                 	.ENDM
                 
                 	.MACRO __MULBRRU
                 	MUL  R@0,R@1
                 	MOVW R30,R0
                 	.ENDM
                 
                 	.MACRO __MULBRR0
                 	MULS R@0,R@1
                 	.ENDM
                 
                 	.MACRO __MULBRRU0
                 	MUL  R@0,R@1
                 	.ENDM
                 
                 	.MACRO __MULBNWRU
                 	LDI  R26,@2
                 	MUL  R26,R@0
                 	MOVW R30,R0
                 	MUL  R26,R@1
                 	ADD  R31,R0
                 	.ENDM
                 
                 ;NAME DEFINITIONS FOR GLOBAL VARIABLES ALLOCATED TO REGISTERS
                 	.DEF _rx_wr_index0=R3
                 	.DEF _i=R5
                 	.DEF _j=R8
                 	.DEF _PGM=R7
                 	.DEF _x=R9
                 
                 ;GPIOR0 INITIALIZATION VALUE
                 	.EQU __GPIOR0_INIT=0x00
                 
                 	.CSEG
                 	.ORG 0x00
                 
                 ;START OF CODE MARKER
                 __START_OF_CODE:
                 
                 ;INTERRUPT VECTORS
000000 940c 01e7 	JMP  __RESET
000002 940c 0000 	JMP  0x00
000004 940c 0000 	JMP  0x00
000006 940c 0000 	JMP  0x00
000008 940c 07b1 	JMP  _pin_change_isr0
00000a 940c 0000 	JMP  0x00
00000c 940c 08e5 	JMP  _pin_change_isr2
00000e 940c 0000 	JMP  0x00
000010 940c 0000 	JMP  0x00
000012 940c 0000 	JMP  0x00
000014 940c 0000 	JMP  0x00
000016 940c 0000 	JMP  0x00
000018 940c 0000 	JMP  0x00
00001a 940c 0000 	JMP  0x00
00001c 940c 0000 	JMP  0x00
00001e 940c 0000 	JMP  0x00
000020 940c 0000 	JMP  0x00
000022 940c 0000 	JMP  0x00
000024 940c 0000 	JMP  0x00
000026 940c 0000 	JMP  0x00
000028 940c 0f86 	JMP  _usart0_rx_isr
00002a 940c 0000 	JMP  0x00
00002c 940c 0000 	JMP  0x00
00002e 940c 0000 	JMP  0x00
000030 940c 0000 	JMP  0x00
000032 940c 0000 	JMP  0x00
000034 940c 0000 	JMP  0x00
000036 940c 0000 	JMP  0x00
000038 940c 0000 	JMP  0x00
00003a 940c 0000 	JMP  0x00
00003c 940c 0000 	JMP  0x00
                 
                 _init:
00003e 0006
00003f 0206
000040 06ff
000041 0704      	.DB  0x6,0x0,0x6,0x2,0xFF,0x6,0x4,0x7
000042 0805
000043 0901
000044 0a2f
000045 0b06      	.DB  0x5,0x8,0x1,0x9,0x2F,0xA,0x6,0xB
000046 0c00
000047 0d10
000048 0e09
000049 0f7b      	.DB  0x0,0xC,0x10,0xD,0x9,0xE,0x7B,0xF
00004a 1085
00004b 1178
00004c 1203
00004d 1302      	.DB  0x85,0x10,0x78,0x11,0x3,0x12,0x2,0x13
00004e 14e5
00004f 1514
000050 1730
000051 1818      	.DB  0xE5,0x14,0x14,0x15,0x30,0x17,0x18,0x18
000052 1916
000053 1a6c
000054 1bc0
000055 1c00      	.DB  0x16,0x19,0x6C,0x1A,0xC0,0x1B,0x0,0x1C
000056 1db2
000057 21b6
000058 2210
000059 23e9      	.DB  0xB2,0x1D,0xB6,0x21,0x10,0x22,0xE9,0x23
00005a 242a
00005b 2500
00005c 261f
00005d 2959      	.DB  0x2A,0x24,0x0,0x25,0x1F,0x26,0x59,0x29
00005e 2c81
00005f 2d35
000060 2e09      	.DB  0x81,0x2C,0x35,0x2D,0x9,0x2E
                 _tbl10_G102:
000061 2710
000062 03e8
000063 0064
000064 000a      	.DB  0x10,0x27,0xE8,0x3,0x64,0x0,0xA,0x0
000065 0001      	.DB  0x1,0x0
                 _tbl16_G102:
000066 1000
000067 0100
000068 0010
000069 0001      	.DB  0x0,0x10,0x0,0x1,0x10,0x0,0x1,0x0
                 
                 _0x297:
E:\AVR\SD-WC\List\DWS.asm(1126): warning: .cseg .db misalignment - padding zero byte
00006a 0000      	.DB  0x0
                 _0x0:
00006b 5441
00006c 000d
00006d 5441
00006e 432b      	.DB  0x41,0x54,0xD,0x0,0x41,0x54,0x2B,0x43
00006f 4552
000070 3f47
000071 000d
000072 5441      	.DB  0x52,0x45,0x47,0x3F,0xD,0x0,0x41,0x54
000073 432b
000074 494c
000075 3d50
000076 0d31      	.DB  0x2B,0x43,0x4C,0x49,0x50,0x3D,0x31,0xD
000077 2c00
000078 2b22
000079 0037
00007a 5441      	.DB  0x0,0x2C,0x22,0x2B,0x37,0x0,0x41,0x54
00007b 432b
00007c 5355
00007d 3d44
00007e 2c31      	.DB  0x2B,0x43,0x55,0x53,0x44,0x3D,0x31,0x2C
00007f 2a22
000080 3031
000081 2330
000082 0d22      	.DB  0x22,0x2A,0x31,0x30,0x30,0x23,0x22,0xD
000083 4100
000084 2b54
000085 5543
000086 4453      	.DB  0x0,0x41,0x54,0x2B,0x43,0x55,0x53,0x44
000087 313d
000088 222c
000089 312a
00008a 3230      	.DB  0x3D,0x31,0x2C,0x22,0x2A,0x31,0x30,0x32
00008b 2223
00008c 000d
00008d 432b
00008e 5355      	.DB  0x23,0x22,0xD,0x0,0x2B,0x43,0x55,0x53
00008f 3a44
000090 3000
000091 3134
000092 3031      	.DB  0x44,0x3A,0x0,0x30,0x34,0x31,0x31,0x30
000093 3334
000094 3030
000095 3334
000096 3042      	.DB  0x34,0x33,0x30,0x30,0x34,0x33,0x42,0x30
000097 3334
000098 3030
000099 3334
00009a 3044      	.DB  0x34,0x33,0x30,0x30,0x34,0x33,0x44,0x30
00009b 3434
00009c 0031
00009d 3430
00009e 3034      	.DB  0x34,0x34,0x31,0x0,0x30,0x34,0x34,0x30
00009f 4100
0000a0 2b54
0000a1 4d43
0000a2 5347      	.DB  0x0,0x41,0x54,0x2B,0x43,0x4D,0x47,0x53
0000a3 253d
0000a4 3230
0000a5 0d64
0000a6 3000      	.DB  0x3D,0x25,0x30,0x32,0x64,0xD,0x0,0x30
0000a7 3030
0000a8 3031
0000a9 3030
0000aa 3942      	.DB  0x30,0x30,0x31,0x30,0x30,0x30,0x42,0x39
0000ab 0031
0000ac 3030
0000ad 3830
0000ae 3025      	.DB  0x31,0x0,0x30,0x30,0x30,0x38,0x25,0x30
0000af 5832
0000b0 4100
0000b1 2b54
0000b2 5043      	.DB  0x32,0x58,0x0,0x41,0x54,0x2B,0x43,0x50
0000b3 4642
0000b4 223d
0000b5 314e
0000b6 0d22      	.DB  0x42,0x46,0x3D,0x22,0x4E,0x31,0x22,0xD
0000b7 4100
0000b8 2b54
0000b9 5043
0000ba 4642      	.DB  0x0,0x41,0x54,0x2B,0x43,0x50,0x42,0x46
0000bb 223d
0000bc 324e
0000bd 0d22
0000be 4100      	.DB  0x3D,0x22,0x4E,0x32,0x22,0xD,0x0,0x41
0000bf 2b54
0000c0 5043
0000c1 4642
0000c2 223d      	.DB  0x54,0x2B,0x43,0x50,0x42,0x46,0x3D,0x22
0000c3 334e
0000c4 0d22
0000c5 4100
0000c6 2b54      	.DB  0x4E,0x33,0x22,0xD,0x0,0x41,0x54,0x2B
0000c7 5043
0000c8 4642
0000c9 223d
0000ca 344e      	.DB  0x43,0x50,0x42,0x46,0x3D,0x22,0x4E,0x34
0000cb 0d22
0000cc 4100
0000cd 2b54
0000ce 5043      	.DB  0x22,0xD,0x0,0x41,0x54,0x2B,0x43,0x50
0000cf 4642
0000d0 223d
0000d1 354e
0000d2 0d22      	.DB  0x42,0x46,0x3D,0x22,0x4E,0x35,0x22,0xD
0000d3 4100
0000d4 2b54
0000d5 5043
0000d6 4642      	.DB  0x0,0x41,0x54,0x2B,0x43,0x50,0x42,0x46
0000d7 223d
0000d8 364e
0000d9 0d22
0000da 4100      	.DB  0x3D,0x22,0x4E,0x36,0x22,0xD,0x0,0x41
0000db 2b54
0000dc 5343
0000dd 4154
0000de 313d      	.DB  0x54,0x2B,0x43,0x53,0x54,0x41,0x3D,0x31
0000df 3534
0000e0 000d
0000e1 5441
0000e2 502a      	.DB  0x34,0x35,0xD,0x0,0x41,0x54,0x2A,0x50
0000e3 5353
0000e4 4b54
0000e5 3d49
0000e6 0d30      	.DB  0x53,0x53,0x54,0x4B,0x49,0x3D,0x30,0xD
0000e7 4100
0000e8 4454
0000e9 0022
0000ea 3b22      	.DB  0x0,0x41,0x54,0x44,0x22,0x0,0x22,0x3B
0000eb 000d
0000ec 5441
0000ed 432b
0000ee 474d      	.DB  0xD,0x0,0x41,0x54,0x2B,0x43,0x4D,0x47
0000ef 3d46
0000f0 0d30
0000f1 4100
0000f2 2b54      	.DB  0x46,0x3D,0x30,0xD,0x0,0x41,0x54,0x2B
0000f3 4d43
0000f4 5347
0000f5 343d
0000f6 0d35      	.DB  0x43,0x4D,0x47,0x53,0x3D,0x34,0x35,0xD
0000f7 3000
0000f8 3030
0000f9 3238
0000fa 3030      	.DB  0x0,0x30,0x30,0x30,0x38,0x32,0x30,0x30
0000fb 3134
0000fc 3034
0000fd 3334
0000fe 3030      	.DB  0x34,0x31,0x34,0x30,0x34,0x33,0x30,0x30
0000ff 3434
000100 3032
000101 3434
000102 3037      	.DB  0x34,0x34,0x32,0x30,0x34,0x34,0x37,0x30
000103 3334
000104 3038
000105 3334
000106 3041      	.DB  0x34,0x33,0x38,0x30,0x34,0x33,0x41,0x30
000107 3230
000108 0030
000109 3030
00010a 3133      	.DB  0x30,0x32,0x30,0x0,0x30,0x30,0x33,0x31
00010b 3000
00010c 3330
00010d 0032
00010e 3030      	.DB  0x0,0x30,0x30,0x33,0x32,0x0,0x30,0x30
00010f 3333
000110 3000
000111 3330
000112 0034      	.DB  0x33,0x33,0x0,0x30,0x30,0x33,0x34,0x0
000113 3030
000114 3533
000115 3000
000116 3330      	.DB  0x30,0x30,0x33,0x35,0x0,0x30,0x30,0x33
000117 0036
000118 3030
000119 3733
00011a 3000      	.DB  0x36,0x0,0x30,0x30,0x33,0x37,0x0,0x30
00011b 3330
00011c 0038
00011d 3030
00011e 3032      	.DB  0x30,0x33,0x38,0x0,0x30,0x30,0x32,0x30
00011f 3430
000120 3234
000121 3430
000122 3034      	.DB  0x30,0x34,0x34,0x32,0x30,0x34,0x34,0x30
000123 3430
000124 3533
000125 3430
000126 3233      	.DB  0x30,0x34,0x33,0x35,0x30,0x34,0x33,0x32
000127 3430
000128 4533
000129 3430
00012a 3333      	.DB  0x30,0x34,0x33,0x45,0x30,0x34,0x33,0x33
00012b 3430
00012c 3033
00012d 001a
00012e 5441      	.DB  0x30,0x34,0x33,0x30,0x1A,0x0,0x41,0x54
00012f 432b
000130 4250
000131 3d57
000132 2c31      	.DB  0x2B,0x43,0x50,0x42,0x57,0x3D,0x31,0x2C
000133 0022
000134 2c22
000135 3431
000136 2c35      	.DB  0x22,0x0,0x22,0x2C,0x31,0x34,0x35,0x2C
000137 4e22
000138 2231
000139 000d
00013a 5441      	.DB  0x22,0x4E,0x31,0x22,0xD,0x0,0x41,0x54
00013b 432b
00013c 4250
00013d 3d57
00013e 2c32      	.DB  0x2B,0x43,0x50,0x42,0x57,0x3D,0x32,0x2C
00013f 0022
000140 2c22
000141 3431
000142 2c35      	.DB  0x22,0x0,0x22,0x2C,0x31,0x34,0x35,0x2C
000143 4e22
000144 2232
000145 000d
000146 5441      	.DB  0x22,0x4E,0x32,0x22,0xD,0x0,0x41,0x54
000147 432b
000148 4250
000149 3d57
00014a 2c33      	.DB  0x2B,0x43,0x50,0x42,0x57,0x3D,0x33,0x2C
00014b 0022
00014c 2c22
00014d 3431
00014e 2c35      	.DB  0x22,0x0,0x22,0x2C,0x31,0x34,0x35,0x2C
00014f 4e22
000150 2233
000151 000d
000152 5441      	.DB  0x22,0x4E,0x33,0x22,0xD,0x0,0x41,0x54
000153 432b
000154 4250
000155 3d57
000156 2c34      	.DB  0x2B,0x43,0x50,0x42,0x57,0x3D,0x34,0x2C
000157 0022
000158 2c22
000159 3431
00015a 2c35      	.DB  0x22,0x0,0x22,0x2C,0x31,0x34,0x35,0x2C
00015b 4e22
00015c 2234
00015d 000d
00015e 5441      	.DB  0x22,0x4E,0x34,0x22,0xD,0x0,0x41,0x54
00015f 432b
000160 4250
000161 3d57
000162 2c35      	.DB  0x2B,0x43,0x50,0x42,0x57,0x3D,0x35,0x2C
000163 0022
000164 2c22
000165 3431
000166 2c35      	.DB  0x22,0x0,0x22,0x2C,0x31,0x34,0x35,0x2C
000167 4e22
000168 2235
000169 000d
00016a 5441      	.DB  0x22,0x4E,0x35,0x22,0xD,0x0,0x41,0x54
00016b 432b
00016c 4250
00016d 3d57
00016e 2c36      	.DB  0x2B,0x43,0x50,0x42,0x57,0x3D,0x36,0x2C
00016f 0022
000170 2c22
000171 3431
000172 2c35      	.DB  0x22,0x0,0x22,0x2C,0x31,0x34,0x35,0x2C
000173 4e22
000174 2236
000175 000d
000176 5242      	.DB  0x22,0x4E,0x36,0x22,0xD,0x0,0x42,0x52
000177 4c45
000178 4b4f
000179 4300
00017a 4148      	.DB  0x45,0x4C,0x4F,0x4B,0x0,0x43,0x48,0x41
00017b 474e
00017c 0045
00017d 4553
00017e 5543      	.DB  0x4E,0x47,0x45,0x0,0x53,0x45,0x43,0x55
00017f 0052
000180 4449
000181 454c
000182 4400      	.DB  0x52,0x0,0x49,0x44,0x4C,0x45,0x0,0x44
000183 5441
000184 4843
000185 4b49
000186 4100      	.DB  0x41,0x54,0x43,0x48,0x49,0x4B,0x0,0x41
000187 2b54
000188 5043
000189 5742
00018a 313d      	.DB  0x54,0x2B,0x43,0x50,0x42,0x57,0x3D,0x31
00018b 000d
00018c 4952
00018d 474e
00018e 4100      	.DB  0xD,0x0,0x52,0x49,0x4E,0x47,0x0,0x41
00018f 4854
000190 000d
000191 5441
000192 432b      	.DB  0x54,0x48,0xD,0x0,0x41,0x54,0x2B,0x43
000193 4250
000194 3d57
000195 0d32
000196 4100      	.DB  0x50,0x42,0x57,0x3D,0x32,0xD,0x0,0x41
000197 2b54
000198 5043
000199 5742
00019a 333d      	.DB  0x54,0x2B,0x43,0x50,0x42,0x57,0x3D,0x33
00019b 000d
00019c 5441
00019d 432b
00019e 4250      	.DB  0xD,0x0,0x41,0x54,0x2B,0x43,0x50,0x42
00019f 3d57
0001a0 0d34
0001a1 4100
0001a2 2b54      	.DB  0x57,0x3D,0x34,0xD,0x0,0x41,0x54,0x2B
0001a3 5043
0001a4 5742
0001a5 353d
0001a6 000d      	.DB  0x43,0x50,0x42,0x57,0x3D,0x35,0xD,0x0
0001a7 5441
0001a8 432b
0001a9 4250
0001aa 3d57      	.DB  0x41,0x54,0x2B,0x43,0x50,0x42,0x57,0x3D
0001ab 0d36
E:\AVR\SD-WC\List\DWS.asm(1208): warning: .cseg .db misalignment - padding zero byte
0001ac 0000      	.DB  0x36,0xD,0x0
                 _0x2020060:
E:\AVR\SD-WC\List\DWS.asm(1210): warning: .cseg .db misalignment - padding zero byte
0001ad 0001      	.DB  0x1
                 _0x2020000:
0001ae 4e2d
0001af 4e41
0001b0 4900
0001b1 464e      	.DB  0x2D,0x4E,0x41,0x4E,0x0,0x49,0x4E,0x46
E:\AVR\SD-WC\List\DWS.asm(1213): warning: .cseg .db misalignment - padding zero byte
0001b2 0000      	.DB  0x0
                 
                 __GLOBAL_INI_TBL:
0001b3 0005      	.DW  0x05
0001b4 0200      	.DW  _0xED
0001b5 00ef      	.DW  _0x0*2+25
                 
0001b6 0007      	.DW  0x07
0001b7 0205      	.DW  _0xFB
0001b8 011a      	.DW  _0x0*2+68
                 
0001b9 0019      	.DW  0x19
0001ba 020c      	.DW  _0xFB+7
0001bb 0121      	.DW  _0x0*2+75
                 
0001bc 0005      	.DW  0x05
0001bd 0225      	.DW  _0xFB+32
0001be 013a      	.DW  _0x0*2+100
                 
0001bf 0005      	.DW  0x05
0001c0 022a      	.DW  _0x10C
0001c1 00ef      	.DW  _0x0*2+25
                 
0001c2 0004      	.DW  0x04
0001c3 022f      	.DW  _0x133
0001c4 00f0      	.DW  _0x0*2+26
                 
0001c5 0007      	.DW  0x07
0001c6 0233      	.DW  _0x162
0001c7 02ec      	.DW  _0x0*2+534
                 
0001c8 0007      	.DW  0x07
0001c9 023a      	.DW  _0x162+7
0001ca 02f3      	.DW  _0x0*2+541
                 
0001cb 0008      	.DW  0x08
0001cc 0241      	.DW  _0x162+14
0001cd 0305      	.DW  _0x0*2+559
                 
0001ce 0005      	.DW  0x05
0001cf 0249      	.DW  _0x1AC
0001d0 0318      	.DW  _0x0*2+578
                 
0001d1 0005      	.DW  0x05
0001d2 024e      	.DW  _0x1AC+5
0001d3 0318      	.DW  _0x0*2+578
                 
0001d4 0005      	.DW  0x05
0001d5 0253      	.DW  _0x1AC+10
0001d6 0318      	.DW  _0x0*2+578
                 
0001d7 0005      	.DW  0x05
0001d8 0258      	.DW  _0x1AC+15
0001d9 0318      	.DW  _0x0*2+578
                 
0001da 0005      	.DW  0x05
0001db 025d      	.DW  _0x1AC+20
0001dc 0318      	.DW  _0x0*2+578
                 
0001dd 0005      	.DW  0x05
0001de 0262      	.DW  _0x1AC+25
0001df 0318      	.DW  _0x0*2+578
                 
0001e0 0001      	.DW  0x01
0001e1 0007      	.DW  0x07
0001e2 00d4      	.DW  _0x297*2
                 
0001e3 0001      	.DW  0x01
0001e4 04b3      	.DW  __seed_G101
0001e5 035a      	.DW  _0x2020060*2
                 
                 _0xFFFFFFFF:
0001e6 0000      	.DW  0
                 
                 __RESET:
0001e7 94f8      	CLI
0001e8 27ee      	CLR  R30
0001e9 bbef      	OUT  EECR,R30
                 
                 ;INTERRUPT VECTORS ARE PLACED
                 ;AT THE START OF FLASH
0001ea e0f1      	LDI  R31,1
0001eb bff5      	OUT  MCUCR,R31
0001ec bfe5      	OUT  MCUCR,R30
                 
                 ;DISABLE WATCHDOG
0001ed e1f8      	LDI  R31,0x18
0001ee 95a8      	WDR
0001ef b7a4      	IN   R26,MCUSR
0001f0 7fa7      	CBR  R26,8
0001f1 bfa4      	OUT  MCUSR,R26
0001f2 93f0 0060 	STS  WDTCSR,R31
0001f4 93e0 0060 	STS  WDTCSR,R30
                 
                 ;CLEAR R2-R14
0001f6 e08d      	LDI  R24,(14-2)+1
0001f7 e0a2      	LDI  R26,2
0001f8 27bb      	CLR  R27
                 __CLEAR_REG:
0001f9 93ed      	ST   X+,R30
0001fa 958a      	DEC  R24
0001fb f7e9      	BRNE __CLEAR_REG
                 
                 ;CLEAR SRAM
0001fc e080      	LDI  R24,LOW(__CLEAR_SRAM_SIZE)
0001fd e094      	LDI  R25,HIGH(__CLEAR_SRAM_SIZE)
0001fe e0a0      	LDI  R26,LOW(__SRAM_START)
0001ff e0b1      	LDI  R27,HIGH(__SRAM_START)
                 __CLEAR_SRAM:
000200 93ed      	ST   X+,R30
000201 9701      	SBIW R24,1
000202 f7e9      	BRNE __CLEAR_SRAM
                 
                 ;GLOBAL VARIABLES INITIALIZATION
000203 e6e6      	LDI  R30,LOW(__GLOBAL_INI_TBL*2)
000204 e0f3      	LDI  R31,HIGH(__GLOBAL_INI_TBL*2)
                 __GLOBAL_INI_NEXT:
000205 9185      	LPM  R24,Z+
000206 9195      	LPM  R25,Z+
000207 9700      	SBIW R24,0
000208 f061      	BREQ __GLOBAL_INI_END
000209 91a5      	LPM  R26,Z+
00020a 91b5      	LPM  R27,Z+
00020b 9005      	LPM  R0,Z+
00020c 9015      	LPM  R1,Z+
00020d 01bf      	MOVW R22,R30
00020e 01f0      	MOVW R30,R0
                 __GLOBAL_INI_LOOP:
00020f 9005      	LPM  R0,Z+
000210 920d      	ST   X+,R0
000211 9701      	SBIW R24,1
000212 f7e1      	BRNE __GLOBAL_INI_LOOP
000213 01fb      	MOVW R30,R22
000214 cff0      	RJMP __GLOBAL_INI_NEXT
                 __GLOBAL_INI_END:
                 
                 ;GPIOR0 INITIALIZATION
000215 e0e0      	LDI  R30,__GPIOR0_INIT
000216 bbee      	OUT  GPIOR0,R30
                 
                 ;HARDWARE STACK POINTER INITIALIZATION
000217 efef      	LDI  R30,LOW(__SRAM_END-__HEAP_SIZE)
000218 bfed      	OUT  SPL,R30
000219 e0e4      	LDI  R30,HIGH(__SRAM_END-__HEAP_SIZE)
00021a bfee      	OUT  SPH,R30
                 
                 ;DATA STACK POINTER INITIALIZATION
00021b e0c0      	LDI  R28,LOW(__SRAM_START+__DSTACK_SIZE)
00021c e0d2      	LDI  R29,HIGH(__SRAM_START+__DSTACK_SIZE)
                 
00021d 940c 0fa3 	JMP  _main
                 
                 	.ESEG
                 	.ORG 0
                 
                 	.DSEG
                 	.ORG 0x200
                 
                 	.CSEG
                 ;/*****************************************************
                 ;This program was produced by the
                 ;CodeWizardAVR V2.05.0 Professional
                 ;Automatic Program Generator
                 ; Copyright 1998-2010 Pavel Haiduc, HP InfoTech s.r.l.
                 ;http://www.hpinfotech.com
                 ;
                 ;Project : DWS
                 ;Version :
                 ;Date    : 06.07.2012
                 ;Author  : Alexandr Gordejchik
                 ;Company : NTS
                 ;Comments:
                 ;
                 ;
                 ;Chip type               : ATmega164PV
                 ;Program type            : Application
                 ;AVR Core Clock frequency: 3,686400 MHz
                 ;Memory model            : Small
                 ;External RAM size       : 0
                 ;Data Stack size         : 256
                 ;*****************************************************/
                 ;
                 ;#include <mega164.h>
                 	#ifndef __SLEEP_DEFINED__
                 	#define __SLEEP_DEFINED__
                 	.EQU __se_bit=0x01
                 	.EQU __sm_mask=0x0E
                 	.EQU __sm_powerdown=0x04
                 	.EQU __sm_powersave=0x06
                 	.EQU __sm_standby=0x0C
                 	.EQU __sm_ext_standby=0x0E
                 	.EQU __sm_adc_noise_red=0x02
                 	.SET power_ctrl_reg=smcr
                 	#endif
                 ;#include <delay.h>
                 ;#include <string.h>
                 ;#include <stdlib.h>
                 ;#include <stdio.h>
                 ;#include <spi.h>
                 ;
                 ;//++++++++++++  - +++++++++++++++++++++++++++++++++++++++++++++++++++++
                 ;#define SRES 0x30 // 
                 ;#define SIDLE 0x36 //   IDLE
                 ;#define SCAL 0x33   //   
                 ;#define SRX 0x34   //    RX
                 ;#define STX 0x35   //    TX
                 ;#define SFRX 0x3A  //  RX FIFO
                 ;#define SFTX 0x3B  //  TX FIFO
                 ;#define SNOP 0x3D  //  -
                 ;//+++++++++++++++++++++++++++++++++++++++++++++++++++++++++++++++++++++++++++++++++++++++++++
                 ; //    (  - ,  - )
                 ;flash unsigned int init[35]=
                 ;{
                 ; 0x0006, //0 IOGFG2  
                 ; 0x0206, //1 IOGFG0 - 
                 ; 0x06FF, //2 PKTLEN  
                 ; 0x0704, //3 PKRCTRL1  
                 ; 0x0805, //4 PKRCTRL0  
                 ; 0x0901, //5 ADDR  
                 ; 0x0A2F, //6 CHANNR  
                 ; 0x0B06, //7 FSCTRL1    
                 ; 0x0C00, //8 FSCTRL0    
                 ; 0x0D10, //9 FREQ2   
                 ; 0x0E09, //10 FREQ1   
                 ; 0x0F7B, //11 FREQ0   
                 ; 0x1085, //12 MDMCFG4  
                 ; 0x1178, //13 MDMCFG3  
                 ; 0x1203, //14 MDMCFG2  
                 ; 0x1302, //15 MDMCFG1  
                 ; 0x14E5, //16 MDMCFG0  
                 ; 0x1514, //17 DEVIATION 
                 ; 0x1730, //18 MCSM1    
                 ; 0x1818, //19 MCSM0    
                 ; 0x1916, //20 FOCCFG   
                 ; 0x1A6C, //21 BSCFG   
                 ; 0x1BC0, //22 AGCCTRL2   
                 ; 0x1C00, //23 AGCCTRL1   
                 ; 0x1DB2, //24 AGCCTRL0   
                 ; 0x21B6, //25 FREND1   
                 ; 0x2210, //26 FREND0   
                 ; 0x23E9, //27 FSCAL3    
                 ; 0x242A, //28 FSCAL2    
                 ; 0x2500, //29 FSCAL1    
                 ; 0x261F, //30 FSCAL0    
                 ; 0x2959, //31 FSTEST   
                 ; 0x2C81, //32 TEST2
                 ; 0x2D35, //33 TEST1
                 ; 0x2E09  //34 TEST0
                 ;};
                 ;//+++++++++++++++++++++++++++++++++++++++++++++++++++++++++++++++++++++++++++++++++++++++++++
                 ;
                 ;union U      //  
                 ;		{
                 ;			unsigned int buf;
                 ;			unsigned char b[2];
                 ;		};
                 ;
                 ;union U1
                 ;        {
                 ;         unsigned char byte;
                 ;         // bit Bit[8];
                 ;
                 ;         struct{
                 ;
                 ;			unsigned char b0:1;
                 ;			unsigned char b1:1;
                 ;			unsigned char b2:1;
                 ;			unsigned char b3:1;
                 ;			unsigned char b4:1;
                 ;			unsigned char b5:1;
                 ;			unsigned char b6:1;
                 ;			unsigned char b7:1;
                 ;
                 ;		    } Bit;
                 ;
                 ;         struct{
                 ;
                 ;			unsigned char l4:2;
                 ;			unsigned char l3:2;
                 ;			unsigned char l2:2;
                 ;			unsigned char l1:2;
                 ;
                 ;		    }Led;
                 ;
                 ;        };
                 ;
                 ;#ifndef RXB8
                 ;#define RXB8 1
                 ;#endif
                 ;
                 ;#ifndef TXB8
                 ;#define TXB8 0
                 ;#endif
                 ;
                 ;#ifndef UPE
                 ;#define UPE 2
                 ;#endif
                 ;
                 ;#ifndef DOR
                 ;#define DOR 3
                 ;#endif
                 ;
                 ;#ifndef FE
                 ;#define FE 4
                 ;#endif
                 ;
                 ;#ifndef UDRE
                 ;#define UDRE 5
                 ;#endif
                 ;
                 ;#ifndef RXC
                 ;#define RXC 7
                 ;#endif
                 ;
                 ;#define FRAMING_ERROR (1<<FE)
                 ;#define PARITY_ERROR (1<<UPE)
                 ;#define DATA_OVERRUN (1<<DOR)
                 ;#define DATA_REGISTER_EMPTY (1<<UDRE)
                 ;#define RX_COMPLETE (1<<RXC)
                 ;
                 ;// USART0 Receiver buffer
                 ;#define RX_BUFFER_SIZE0 512
                 ;char rx_buffer0[RX_BUFFER_SIZE0];
                 ;
                 ;#if RX_BUFFER_SIZE0 <= 256
                 ;unsigned char rx_wr_index0;
                 ;#else
                 ;unsigned int rx_wr_index0;
                 ;#endif
                 ;
                 ;
                 ;unsigned char NR[12];     //   
                 ;
                 ;//   
                 ;//char z;          //  
                 ;unsigned int i; //  
                 ;unsigned char j; //
                 ;unsigned char SPI_buffer[64];
                 ;unsigned char PGM=0;
                 ;unsigned char *x;
                 ;eeprom union U1 LD1;
                 ;eeprom union U1 LD2;
                 ;eeprom union U1 LD3;
                 ;
                 ;eeprom unsigned char DAT1[]="026026";
                 ;eeprom unsigned char DAT2[]="128128";
                 ;eeprom unsigned char DAT3[]="256256";
                 ;eeprom unsigned char DAT4[]="FFFFFF";
                 ;eeprom unsigned char DAT5[]="FFFFFF";
                 ;eeprom unsigned char DAT6[]="FFFFFF";
                 ;eeprom unsigned char DAT7[]="FFFFFF";
                 ;eeprom unsigned char DAT8[]="FFFFFF";
                 ;
                 ;eeprom unsigned char BREL1[]="164164";
                 ;eeprom unsigned char BREL2[]="250250";
                 ;eeprom unsigned char BREL3[]="FFFFFF";
                 ;eeprom unsigned char BREL4[]="FFFFFF";
                 ;eeprom unsigned char BREL5[]="FFFFFF";
                 ;eeprom unsigned char BREL6[]="FFFFFF";
                 ;
                 ;eeprom unsigned char OP;
                 ;eeprom unsigned char COUNT;
                 ;eeprom unsigned char STAT[256];
                 ;
                 ;
                 ;//======================================================================================================================================
                 ;//===========================================================================================================================
                 ;//=====================================================================================================================================
                 ;void LOAD_LD(void)  //  
                 ; 0000 00C8 
                 ; 0000 00C9 {
                 
                 	.CSEG
                 _LOAD_LD:
                 ; 0000 00CA union U1 LD;
                 ; 0000 00CB 
                 ; 0000 00CC 
                 ; 0000 00CD PORTA.4=0;
00021f 9721      	SBIW R28,1
                 ;	LD -> Y+0
000220 9814      	CBI  0x2,4
                 ; 0000 00CE  LD.byte=LD3.byte;
000221 940e 1081 	CALL SUBOPT_0x0
000223 83e8      	ST   Y,R30
                 ; 0000 00CF for (i=0;i<8;i++)
000224 2455      	CLR  R5
000225 2466      	CLR  R6
                 _0x6:
000226 940e 1086 	CALL SUBOPT_0x1
000228 f458      	BRSH _0x7
                 ; 0000 00D0   {
                 ; 0000 00D1    PORTA.2=LD.Bit.b0;
000229 81e8      	LD   R30,Y
00022a 70e1      	ANDI R30,LOW(0x1)
00022b f411      	BRNE _0x8
00022c 9812      	CBI  0x2,2
00022d c001      	RJMP _0x9
                 _0x8:
00022e 9a12      	SBI  0x2,2
                 _0x9:
                 ; 0000 00D2    LD.byte= LD.byte>>1;
00022f 940e 108b 	CALL SUBOPT_0x2
                 ; 0000 00D3    delay_ms(1);
                 ; 0000 00D4    PORTA.3=1;
                 ; 0000 00D5    delay_ms(1);
                 ; 0000 00D6    PORTA.3=0;
                 ; 0000 00D7   }
000231 940e 109f 	CALL SUBOPT_0x3
000233 cff2      	RJMP _0x6
                 _0x7:
                 ; 0000 00D8  LD.byte=LD2.byte;
000234 940e 10a4 	CALL SUBOPT_0x4
000236 83e8      	ST   Y,R30
                 ; 0000 00D9 for (i=0;i<8;i++)
000237 2455      	CLR  R5
000238 2466      	CLR  R6
                 _0xF:
000239 940e 1086 	CALL SUBOPT_0x1
00023b f458      	BRSH _0x10
                 ; 0000 00DA   {
                 ; 0000 00DB    PORTA.2=LD.Bit.b0;
00023c 81e8      	LD   R30,Y
00023d 70e1      	ANDI R30,LOW(0x1)
00023e f411      	BRNE _0x11
00023f 9812      	CBI  0x2,2
000240 c001      	RJMP _0x12
                 _0x11:
000241 9a12      	SBI  0x2,2
                 _0x12:
                 ; 0000 00DC    LD.byte= LD.byte>>1;
000242 940e 108b 	CALL SUBOPT_0x2
                 ; 0000 00DD    delay_ms(1);
                 ; 0000 00DE    PORTA.3=1;
                 ; 0000 00DF    delay_ms(1);
                 ; 0000 00E0    PORTA.3=0;
                 ; 0000 00E1   }
000244 940e 109f 	CALL SUBOPT_0x3
000246 cff2      	RJMP _0xF
                 _0x10:
                 ; 0000 00E2  LD.byte=LD1.byte;
000247 940e 10a9 	CALL SUBOPT_0x5
000249 83e8      	ST   Y,R30
                 ; 0000 00E3 for (i=0;i<8;i++)
00024a 2455      	CLR  R5
00024b 2466      	CLR  R6
                 _0x18:
00024c 940e 1086 	CALL SUBOPT_0x1
00024e f458      	BRSH _0x19
                 ; 0000 00E4   {
                 ; 0000 00E5    PORTA.2=LD.Bit.b0;
00024f 81e8      	LD   R30,Y
000250 70e1      	ANDI R30,LOW(0x1)
000251 f411      	BRNE _0x1A
000252 9812      	CBI  0x2,2
000253 c001      	RJMP _0x1B
                 _0x1A:
000254 9a12      	SBI  0x2,2
                 _0x1B:
                 ; 0000 00E6    LD.byte=LD.byte>>1;
000255 940e 108b 	CALL SUBOPT_0x2
                 ; 0000 00E7    delay_ms(1);
                 ; 0000 00E8    PORTA.3=1;
                 ; 0000 00E9    delay_ms(1);
                 ; 0000 00EA    PORTA.3=0;
                 ; 0000 00EB   }
000257 940e 109f 	CALL SUBOPT_0x3
000259 cff2      	RJMP _0x18
                 _0x19:
                 ; 0000 00EC  PORTA.5=1; //  
00025a 9a15      	SBI  0x2,5
                 ; 0000 00ED  PORTA.4=1;
00025b 9a14      	SBI  0x2,4
                 ; 0000 00EE  delay_ms(1);
00025c 940e 10ae 	CALL SUBOPT_0x6
                 ; 0000 00EF  PORTA.4=0;
00025e 9814      	CBI  0x2,4
                 ; 0000 00F0  PORTA.5=0; // 
00025f 9815      	CBI  0x2,5
                 ; 0000 00F1 }
000260 c259      	RJMP _0x20C0007
                 ;//*********************************************************************************************
                 ; char VALID_CODE(char *str1, eeprom char *str2, char n) //  
                 ; 0000 00F4 {  char e;
                 _VALID_CODE:
                 ; 0000 00F5     e=0;
000261 931a      	ST   -Y,R17
                 ;	*str1 -> Y+4
                 ;	*str2 -> Y+2
                 ;	n -> Y+1
                 ;	e -> R17
000262 e010      	LDI  R17,LOW(0)
                 ; 0000 00F6  for(i=0;i<n;i++)
000263 2455      	CLR  R5
000264 2466      	CLR  R6
                 _0x29:
000265 81e9      	LDD  R30,Y+1
000266 940e 10b4 	CALL SUBOPT_0x7
000268 f4a8      	BRSH _0x2A
                 ; 0000 00F7 
                 ; 0000 00F8   {  if((*str1++)!=(*str2++))
000269 81ac      	LDD  R26,Y+4
00026a 81bd      	LDD  R27,Y+4+1
00026b 900d      	LD   R0,X+
00026c 83ac      	STD  Y+4,R26
00026d 83bd      	STD  Y+4+1,R27
00026e 81aa      	LDD  R26,Y+2
00026f 81bb      	LDD  R27,Y+2+1
000270 9611      	ADIW R26,1
000271 83aa      	STD  Y+2,R26
000272 83bb      	STD  Y+2+1,R27
000273 9711      	SBIW R26,1
000274 940e 12aa 	CALL __EEPROMRDB
000276 15e0      	CP   R30,R0
000277 f011      	BREQ _0x2B
                 ; 0000 00F9      { e=NULL;
000278 e010      	LDI  R17,LOW(0)
                 ; 0000 00FA         break;}
000279 c004      	RJMP _0x2A
                 ; 0000 00FB      else e=e+1;
                 _0x2B:
00027a 5f1f      	SUBI R17,-LOW(1)
                 ; 0000 00FC    // STAT[i]=*str2++;
                 ; 0000 00FD   }
00027b 940e 10ba 	CALL SUBOPT_0x8
00027d cfe7      	RJMP _0x29
                 _0x2A:
                 ; 0000 00FE 
                 ; 0000 00FF   return e;
00027e 2fe1      	MOV  R30,R17
00027f 8118      	LDD  R17,Y+0
000280 9626      	ADIW R28,6
000281 9508      	RET
                 ; 0000 0100 }
                 ;//**************************************************************************************************
                 ;void PROGRAM_DAT(char dev) //  
                 ; 0000 0103 { if(dev=='D')
                 _PROGRAM_DAT:
                 ;	dev -> Y+0
000282 81a8      	LD   R26,Y
000283 34a4      	CPI  R26,LOW(0x44)
000284 f589      	BRNE _0x2D
                 ; 0000 0104 {
                 ; 0000 0105  if (VALID_CODE(x,DAT1,6)!=NULL){PGM=0xFF; return;}
000285 940e 10c1 	CALL SUBOPT_0x9
000287 f019      	BREQ _0x2E
000288 efef      	LDI  R30,LOW(255)
000289 2e7e      	MOV  R7,R30
00028a c22f      	RJMP _0x20C0007
                 ; 0000 0106  if (VALID_CODE(x,DAT2,6)!=NULL){PGM=0xFF; return;}
                 _0x2E:
00028b 940e 10cd 	CALL SUBOPT_0xA
00028d f019      	BREQ _0x2F
00028e efef      	LDI  R30,LOW(255)
00028f 2e7e      	MOV  R7,R30
000290 c229      	RJMP _0x20C0007
                 ; 0000 0107  if (VALID_CODE(x,DAT3,6)!=NULL){PGM=0xFF; return;}
                 _0x2F:
000291 940e 10d9 	CALL SUBOPT_0xB
000293 f019      	BREQ _0x30
000294 efef      	LDI  R30,LOW(255)
000295 2e7e      	MOV  R7,R30
000296 c223      	RJMP _0x20C0007
                 ; 0000 0108  if (VALID_CODE(x,DAT4,6)!=NULL){PGM=0xFF; return;}
                 _0x30:
000297 940e 10e5 	CALL SUBOPT_0xC
000299 f019      	BREQ _0x31
00029a efef      	LDI  R30,LOW(255)
00029b 2e7e      	MOV  R7,R30
00029c c21d      	RJMP _0x20C0007
                 ; 0000 0109  if (VALID_CODE(x,DAT5,6)!=NULL){PGM=0xFF; return;}
                 _0x31:
00029d 940e 10f1 	CALL SUBOPT_0xD
00029f f019      	BREQ _0x32
0002a0 efef      	LDI  R30,LOW(255)
0002a1 2e7e      	MOV  R7,R30
0002a2 c217      	RJMP _0x20C0007
                 ; 0000 010A  if (VALID_CODE(x,DAT6,6)!=NULL){PGM=0xFF; return;}
                 _0x32:
0002a3 940e 10fd 	CALL SUBOPT_0xE
0002a5 f019      	BREQ _0x33
0002a6 efef      	LDI  R30,LOW(255)
0002a7 2e7e      	MOV  R7,R30
0002a8 c211      	RJMP _0x20C0007
                 ; 0000 010B  if (VALID_CODE(x,DAT7,6)!=NULL){PGM=0xFF; return;}
                 _0x33:
0002a9 940e 1109 	CALL SUBOPT_0xF
0002ab f019      	BREQ _0x34
0002ac efef      	LDI  R30,LOW(255)
0002ad 2e7e      	MOV  R7,R30
0002ae c20b      	RJMP _0x20C0007
                 ; 0000 010C  if (VALID_CODE(x,DAT8,6)!=NULL){PGM=0xFF; return;}
                 _0x34:
0002af 940e 1115 	CALL SUBOPT_0x10
0002b1 f019      	BREQ _0x35
0002b2 efef      	LDI  R30,LOW(255)
0002b3 2e7e      	MOV  R7,R30
0002b4 c205      	RJMP _0x20C0007
                 ; 0000 010D  }
                 _0x35:
                 ; 0000 010E else if(dev=='B')
0002b5 c027      	RJMP _0x36
                 _0x2D:
0002b6 81a8      	LD   R26,Y
0002b7 34a2      	CPI  R26,LOW(0x42)
0002b8 f521      	BRNE _0x37
                 ; 0000 010F {
                 ; 0000 0110  if (VALID_CODE(x,BREL1,6)!=NULL){PGM=0xFF; return;}
0002b9 940e 1121 	CALL SUBOPT_0x11
0002bb f019      	BREQ _0x38
0002bc efef      	LDI  R30,LOW(255)
0002bd 2e7e      	MOV  R7,R30
0002be c1fb      	RJMP _0x20C0007
                 ; 0000 0111  if (VALID_CODE(x,BREL2,6)!=NULL){PGM=0xFF; return;}
                 _0x38:
0002bf 940e 112d 	CALL SUBOPT_0x12
0002c1 f019      	BREQ _0x39
0002c2 efef      	LDI  R30,LOW(255)
0002c3 2e7e      	MOV  R7,R30
0002c4 c1f5      	RJMP _0x20C0007
                 ; 0000 0112  if (VALID_CODE(x,BREL3,6)!=NULL){PGM=0xFF; return;}
                 _0x39:
0002c5 940e 1139 	CALL SUBOPT_0x13
0002c7 f019      	BREQ _0x3A
0002c8 efef      	LDI  R30,LOW(255)
0002c9 2e7e      	MOV  R7,R30
0002ca c1ef      	RJMP _0x20C0007
                 ; 0000 0113  if (VALID_CODE(x,BREL4,6)!=NULL){PGM=0xFF; return;}
                 _0x3A:
0002cb 940e 1145 	CALL SUBOPT_0x14
0002cd f019      	BREQ _0x3B
0002ce efef      	LDI  R30,LOW(255)
0002cf 2e7e      	MOV  R7,R30
0002d0 c1e9      	RJMP _0x20C0007
                 ; 0000 0114  if (VALID_CODE(x,BREL5,6)!=NULL){PGM=0xFF; return;}
                 _0x3B:
0002d1 940e 1151 	CALL SUBOPT_0x15
0002d3 f019      	BREQ _0x3C
0002d4 efef      	LDI  R30,LOW(255)
0002d5 2e7e      	MOV  R7,R30
0002d6 c1e3      	RJMP _0x20C0007
                 ; 0000 0115  if (VALID_CODE(x,BREL6,6)!=NULL){PGM=0xFF; return;}
                 _0x3C:
0002d7 940e 115d 	CALL SUBOPT_0x16
0002d9 f019      	BREQ _0x3D
0002da efef      	LDI  R30,LOW(255)
0002db 2e7e      	MOV  R7,R30
0002dc c1dd      	RJMP _0x20C0007
                 ; 0000 0116 }
                 _0x3D:
                 ; 0000 0117  switch (PGM)
                 _0x37:
                 _0x36:
0002dd 2de7      	MOV  R30,R7
0002de 940e 1169 	CALL SUBOPT_0x17
                 ; 0000 0118   {
                 ; 0000 0119 
                 ; 0000 011A    case 1 :{
0002e0 f479      	BRNE _0x41
                 ; 0000 011B            for(i=0;i<6;i++) DAT1[i]=*x++;
0002e1 2455      	CLR  R5
0002e2 2466      	CLR  R6
                 _0x43:
0002e3 940e 116e 	CALL SUBOPT_0x18
0002e5 f448      	BRSH _0x44
                +
0002e6 2da5     +MOV R26 , R5
0002e7 2db6     +MOV R27 , R6
                 	__GETW2R 5,6
0002e8 5fad      	SUBI R26,LOW(-_DAT1)
0002e9 4fbf      	SBCI R27,HIGH(-_DAT1)
0002ea 940e 1173 	CALL SUBOPT_0x19
0002ec 940e 109f 	CALL SUBOPT_0x3
0002ee cff4      	RJMP _0x43
                 _0x44:
                 ; 0000 011C PGM=0xDF;
0002ef c0f6      	RJMP _0x281
                 ; 0000 011D            break;
                 ; 0000 011E            }
                 ; 0000 011F 
                 ; 0000 0120     case 2 :{
                 _0x41:
0002f0 30e2      	CPI  R30,LOW(0x2)
0002f1 e0a0      	LDI  R26,HIGH(0x2)
0002f2 07fa      	CPC  R31,R26
0002f3 f479      	BRNE _0x45
                 ; 0000 0121            for(i=0;i<6;i++) DAT2[i]=*x++;
0002f4 2455      	CLR  R5
0002f5 2466      	CLR  R6
                 _0x47:
0002f6 940e 116e 	CALL SUBOPT_0x18
0002f8 f448      	BRSH _0x48
                +
0002f9 2da5     +MOV R26 , R5
0002fa 2db6     +MOV R27 , R6
                 	__GETW2R 5,6
0002fb 5fa6      	SUBI R26,LOW(-_DAT2)
0002fc 4fbf      	SBCI R27,HIGH(-_DAT2)
0002fd 940e 1173 	CALL SUBOPT_0x19
0002ff 940e 109f 	CALL SUBOPT_0x3
000301 cff4      	RJMP _0x47
                 _0x48:
                 ; 0000 0122 PGM=0xDF;
000302 c0e3      	RJMP _0x281
                 ; 0000 0123            break;
                 ; 0000 0124            }
                 ; 0000 0125 
                 ; 0000 0126     case 3 :{
                 _0x45:
000303 30e3      	CPI  R30,LOW(0x3)
000304 e0a0      	LDI  R26,HIGH(0x3)
000305 07fa      	CPC  R31,R26
000306 f479      	BRNE _0x49
                 ; 0000 0127            for(i=0;i<6;i++) DAT3[i]=*x++;
000307 2455      	CLR  R5
000308 2466      	CLR  R6
                 _0x4B:
000309 940e 116e 	CALL SUBOPT_0x18
00030b f448      	BRSH _0x4C
                +
00030c 2da5     +MOV R26 , R5
00030d 2db6     +MOV R27 , R6
                 	__GETW2R 5,6
00030e 5eaf      	SUBI R26,LOW(-_DAT3)
00030f 4fbf      	SBCI R27,HIGH(-_DAT3)
000310 940e 1173 	CALL SUBOPT_0x19
000312 940e 109f 	CALL SUBOPT_0x3
000314 cff4      	RJMP _0x4B
                 _0x4C:
                 ; 0000 0128 PGM=0xDF;
000315 c0d0      	RJMP _0x281
                 ; 0000 0129            break;
                 ; 0000 012A            }
                 ; 0000 012B 
                 ; 0000 012C     case 4 :{
                 _0x49:
000316 30e4      	CPI  R30,LOW(0x4)
000317 e0a0      	LDI  R26,HIGH(0x4)
000318 07fa      	CPC  R31,R26
000319 f479      	BRNE _0x4D
                 ; 0000 012D            for(i=0;i<6;i++) DAT4[i]=*x++;
00031a 2455      	CLR  R5
00031b 2466      	CLR  R6
                 _0x4F:
00031c 940e 116e 	CALL SUBOPT_0x18
00031e f448      	BRSH _0x50
                +
00031f 2da5     +MOV R26 , R5
000320 2db6     +MOV R27 , R6
                 	__GETW2R 5,6
000321 5ea8      	SUBI R26,LOW(-_DAT4)
000322 4fbf      	SBCI R27,HIGH(-_DAT4)
000323 940e 1173 	CALL SUBOPT_0x19
000325 940e 109f 	CALL SUBOPT_0x3
000327 cff4      	RJMP _0x4F
                 _0x50:
                 ; 0000 012E PGM=0xDF;
000328 c0bd      	RJMP _0x281
                 ; 0000 012F            break;
                 ; 0000 0130            }
                 ; 0000 0131 
                 ; 0000 0132     case 5 :{
                 _0x4D:
000329 30e5      	CPI  R30,LOW(0x5)
00032a e0a0      	LDI  R26,HIGH(0x5)
00032b 07fa      	CPC  R31,R26
00032c f479      	BRNE _0x51
                 ; 0000 0133            for(i=0;i<6;i++) DAT5[i]=*x++;
00032d 2455      	CLR  R5
00032e 2466      	CLR  R6
                 _0x53:
00032f 940e 116e 	CALL SUBOPT_0x18
000331 f448      	BRSH _0x54
                +
000332 2da5     +MOV R26 , R5
000333 2db6     +MOV R27 , R6
                 	__GETW2R 5,6
000334 5ea1      	SUBI R26,LOW(-_DAT5)
000335 4fbf      	SBCI R27,HIGH(-_DAT5)
000336 940e 1173 	CALL SUBOPT_0x19
000338 940e 109f 	CALL SUBOPT_0x3
00033a cff4      	RJMP _0x53
                 _0x54:
                 ; 0000 0134 PGM=0xDF;
00033b c0aa      	RJMP _0x281
                 ; 0000 0135            break;
                 ; 0000 0136            }
                 ; 0000 0137 
                 ; 0000 0138      case 6 :{
                 _0x51:
00033c 30e6      	CPI  R30,LOW(0x6)
00033d e0a0      	LDI  R26,HIGH(0x6)
00033e 07fa      	CPC  R31,R26
00033f f479      	BRNE _0x55
                 ; 0000 0139            for(i=0;i<6;i++) DAT6[i]=*x++;
000340 2455      	CLR  R5
000341 2466      	CLR  R6
                 _0x57:
000342 940e 116e 	CALL SUBOPT_0x18
000344 f448      	BRSH _0x58
                +
000345 2da5     +MOV R26 , R5
000346 2db6     +MOV R27 , R6
                 	__GETW2R 5,6
000347 5daa      	SUBI R26,LOW(-_DAT6)
000348 4fbf      	SBCI R27,HIGH(-_DAT6)
000349 940e 1173 	CALL SUBOPT_0x19
00034b 940e 109f 	CALL SUBOPT_0x3
00034d cff4      	RJMP _0x57
                 _0x58:
                 ; 0000 013A PGM=0xDF;
00034e c097      	RJMP _0x281
                 ; 0000 013B            break;
                 ; 0000 013C            }
                 ; 0000 013D 
                 ; 0000 013E      case 7 :{
                 _0x55:
00034f 30e7      	CPI  R30,LOW(0x7)
000350 e0a0      	LDI  R26,HIGH(0x7)
000351 07fa      	CPC  R31,R26
000352 f479      	BRNE _0x59
                 ; 0000 013F            for(i=0;i<6;i++) DAT7[i]=*x++;
000353 2455      	CLR  R5
000354 2466      	CLR  R6
                 _0x5B:
000355 940e 116e 	CALL SUBOPT_0x18
000357 f448      	BRSH _0x5C
                +
000358 2da5     +MOV R26 , R5
000359 2db6     +MOV R27 , R6
                 	__GETW2R 5,6
00035a 5da3      	SUBI R26,LOW(-_DAT7)
00035b 4fbf      	SBCI R27,HIGH(-_DAT7)
00035c 940e 1173 	CALL SUBOPT_0x19
00035e 940e 109f 	CALL SUBOPT_0x3
000360 cff4      	RJMP _0x5B
                 _0x5C:
                 ; 0000 0140 PGM=0xDF;
000361 c084      	RJMP _0x281
                 ; 0000 0141            break;
                 ; 0000 0142            }
                 ; 0000 0143 
                 ; 0000 0144 
                 ; 0000 0145     case 8 :{
                 _0x59:
000362 30e8      	CPI  R30,LOW(0x8)
000363 e0a0      	LDI  R26,HIGH(0x8)
000364 07fa      	CPC  R31,R26
000365 f479      	BRNE _0x5D
                 ; 0000 0146            for(i=0;i<6;i++) DAT8[i]=*x++;
000366 2455      	CLR  R5
000367 2466      	CLR  R6
                 _0x5F:
000368 940e 116e 	CALL SUBOPT_0x18
00036a f448      	BRSH _0x60
                +
00036b 2da5     +MOV R26 , R5
00036c 2db6     +MOV R27 , R6
                 	__GETW2R 5,6
00036d 5cac      	SUBI R26,LOW(-_DAT8)
00036e 4fbf      	SBCI R27,HIGH(-_DAT8)
00036f 940e 1173 	CALL SUBOPT_0x19
000371 940e 109f 	CALL SUBOPT_0x3
000373 cff4      	RJMP _0x5F
                 _0x60:
                 ; 0000 0147 PGM=0xDF;
000374 c071      	RJMP _0x281
                 ; 0000 0148            break;
                 ; 0000 0149            }
                 ; 0000 014A 
                 ; 0000 014B    case 11 :{
                 _0x5D:
000375 30eb      	CPI  R30,LOW(0xB)
000376 e0a0      	LDI  R26,HIGH(0xB)
000377 07fa      	CPC  R31,R26
000378 f479      	BRNE _0x61
                 ; 0000 014C            for(i=0;i<6;i++) BREL1[i]=*x++;
000379 2455      	CLR  R5
00037a 2466      	CLR  R6
                 _0x63:
00037b 940e 116e 	CALL SUBOPT_0x18
00037d f448      	BRSH _0x64
                +
00037e 2da5     +MOV R26 , R5
00037f 2db6     +MOV R27 , R6
                 	__GETW2R 5,6
000380 5ca5      	SUBI R26,LOW(-_BREL1)
000381 4fbf      	SBCI R27,HIGH(-_BREL1)
000382 940e 1173 	CALL SUBOPT_0x19
000384 940e 109f 	CALL SUBOPT_0x3
000386 cff4      	RJMP _0x63
                 _0x64:
                 ; 0000 014D PGM=0xDF;
000387 c05e      	RJMP _0x281
                 ; 0000 014E            break;
                 ; 0000 014F            }
                 ; 0000 0150 
                 ; 0000 0151     case 12 :{
                 _0x61:
000388 30ec      	CPI  R30,LOW(0xC)
000389 e0a0      	LDI  R26,HIGH(0xC)
00038a 07fa      	CPC  R31,R26
00038b f479      	BRNE _0x65
                 ; 0000 0152            for(i=0;i<6;i++) BREL2[i]=*x++;
00038c 2455      	CLR  R5
00038d 2466      	CLR  R6
                 _0x67:
00038e 940e 116e 	CALL SUBOPT_0x18
000390 f448      	BRSH _0x68
                +
000391 2da5     +MOV R26 , R5
000392 2db6     +MOV R27 , R6
                 	__GETW2R 5,6
000393 5bae      	SUBI R26,LOW(-_BREL2)
000394 4fbf      	SBCI R27,HIGH(-_BREL2)
000395 940e 1173 	CALL SUBOPT_0x19
000397 940e 109f 	CALL SUBOPT_0x3
000399 cff4      	RJMP _0x67
                 _0x68:
                 ; 0000 0153 PGM=0xDF;
00039a c04b      	RJMP _0x281
                 ; 0000 0154            break;
                 ; 0000 0155            }
                 ; 0000 0156 
                 ; 0000 0157      case 13 :{
                 _0x65:
00039b 30ed      	CPI  R30,LOW(0xD)
00039c e0a0      	LDI  R26,HIGH(0xD)
00039d 07fa      	CPC  R31,R26
00039e f479      	BRNE _0x69
                 ; 0000 0158            for(i=0;i<6;i++) BREL3[i]=*x++;
00039f 2455      	CLR  R5
0003a0 2466      	CLR  R6
                 _0x6B:
0003a1 940e 116e 	CALL SUBOPT_0x18
0003a3 f448      	BRSH _0x6C
                +
0003a4 2da5     +MOV R26 , R5
0003a5 2db6     +MOV R27 , R6
                 	__GETW2R 5,6
0003a6 5ba7      	SUBI R26,LOW(-_BREL3)
0003a7 4fbf      	SBCI R27,HIGH(-_BREL3)
0003a8 940e 1173 	CALL SUBOPT_0x19
0003aa 940e 109f 	CALL SUBOPT_0x3
0003ac cff4      	RJMP _0x6B
                 _0x6C:
                 ; 0000 0159 PGM=0xDF;
0003ad c038      	RJMP _0x281
                 ; 0000 015A            break;
                 ; 0000 015B            }
                 ; 0000 015C 
                 ; 0000 015D       case 14 :{
                 _0x69:
0003ae 30ee      	CPI  R30,LOW(0xE)
0003af e0a0      	LDI  R26,HIGH(0xE)
0003b0 07fa      	CPC  R31,R26
0003b1 f479      	BRNE _0x6D
                 ; 0000 015E            for(i=0;i<6;i++) BREL4[i]=*x++;
0003b2 2455      	CLR  R5
0003b3 2466      	CLR  R6
                 _0x6F:
0003b4 940e 116e 	CALL SUBOPT_0x18
0003b6 f448      	BRSH _0x70
                +
0003b7 2da5     +MOV R26 , R5
0003b8 2db6     +MOV R27 , R6
                 	__GETW2R 5,6
0003b9 5ba0      	SUBI R26,LOW(-_BREL4)
0003ba 4fbf      	SBCI R27,HIGH(-_BREL4)
0003bb 940e 1173 	CALL SUBOPT_0x19
0003bd 940e 109f 	CALL SUBOPT_0x3
0003bf cff4      	RJMP _0x6F
                 _0x70:
                 ; 0000 015F PGM=0xDF;
0003c0 c025      	RJMP _0x281
                 ; 0000 0160            break;
                 ; 0000 0161            }
                 ; 0000 0162 
                 ; 0000 0163        case 15 :{
                 _0x6D:
0003c1 30ef      	CPI  R30,LOW(0xF)
0003c2 e0a0      	LDI  R26,HIGH(0xF)
0003c3 07fa      	CPC  R31,R26
0003c4 f479      	BRNE _0x71
                 ; 0000 0164            for(i=0;i<6;i++) BREL5[i]=*x++;
0003c5 2455      	CLR  R5
0003c6 2466      	CLR  R6
                 _0x73:
0003c7 940e 116e 	CALL SUBOPT_0x18
0003c9 f448      	BRSH _0x74
                +
0003ca 2da5     +MOV R26 , R5
0003cb 2db6     +MOV R27 , R6
                 	__GETW2R 5,6
0003cc 5aa9      	SUBI R26,LOW(-_BREL5)
0003cd 4fbf      	SBCI R27,HIGH(-_BREL5)
0003ce 940e 1173 	CALL SUBOPT_0x19
0003d0 940e 109f 	CALL SUBOPT_0x3
0003d2 cff4      	RJMP _0x73
                 _0x74:
                 ; 0000 0165 PGM=0xDF;
0003d3 c012      	RJMP _0x281
                 ; 0000 0166            break;
                 ; 0000 0167            }
                 ; 0000 0168 
                 ; 0000 0169         case 16 :{
                 _0x71:
0003d4 31e0      	CPI  R30,LOW(0x10)
0003d5 e0a0      	LDI  R26,HIGH(0x10)
0003d6 07fa      	CPC  R31,R26
0003d7 f481      	BRNE _0x40
                 ; 0000 016A            for(i=0;i<6;i++) BREL6[i]=*x++;
0003d8 2455      	CLR  R5
0003d9 2466      	CLR  R6
                 _0x77:
0003da 940e 116e 	CALL SUBOPT_0x18
0003dc f448      	BRSH _0x78
                +
0003dd 2da5     +MOV R26 , R5
0003de 2db6     +MOV R27 , R6
                 	__GETW2R 5,6
0003df 5aa2      	SUBI R26,LOW(-_BREL6)
0003e0 4fbf      	SBCI R27,HIGH(-_BREL6)
0003e1 940e 1173 	CALL SUBOPT_0x19
0003e3 940e 109f 	CALL SUBOPT_0x3
0003e5 cff4      	RJMP _0x77
                 _0x78:
                 ; 0000 016B PGM=0xDF;
                 _0x281:
0003e6 edef      	LDI  R30,LOW(223)
0003e7 2e7e      	MOV  R7,R30
                 ; 0000 016C            break;
                 ; 0000 016D            }
                 ; 0000 016E 
                 ; 0000 016F    }
                 _0x40:
                 ; 0000 0170 }
0003e8 c0d1      	RJMP _0x20C0007
                 ;
                 ; //==================    ============================================
                 ; //*******************************************************************************************
                 ; unsigned char SPI_SEND(unsigned char data)  // /    SPI
                 ; 0000 0175 {
                 _SPI_SEND:
                 ; 0000 0176 SPDR = data;
                 ;	data -> Y+0
0003e9 81e8      	LD   R30,Y
0003ea bdee      	OUT  0x2E,R30
                 ; 0000 0177 		while (!(SPSR & (1<<SPIF)));
                 _0x79:
0003eb b5ed      	IN   R30,0x2D
0003ec 78e0      	ANDI R30,LOW(0x80)
0003ed f3e9      	BREQ _0x79
                 ; 0000 0178 		return SPDR;
0003ee b5ee      	IN   R30,0x2E
0003ef c0ca      	RJMP _0x20C0007
                 ; 0000 0179 }
                 ;
                 ;
                 ;//********************************************************************************************
                 ; void RESET_TR(void) //    
                 ; 0000 017E {
                 _RESET_TR:
                 ; 0000 017F SPCR=0x00; // SPI
0003f0 e0e0      	LDI  R30,LOW(0)
0003f1 bdec      	OUT  0x2C,R30
                 ; 0000 0180 PORTB.7=1; // 1  SCK
0003f2 9a2f      	SBI  0x5,7
                 ; 0000 0181 PORTB.5=0;  //  0  MOSI
0003f3 982d      	CBI  0x5,5
                 ; 0000 0182 PORTB.4=0; // SPI_SS ON
0003f4 982c      	CBI  0x5,4
                 ; 0000 0183 delay_us(1);
                +
0003f5 e082     +LDI R24 , LOW ( 2 )
                +__DELAY_USB_LOOP :
0003f6 958a     +DEC R24
0003f7 f7f1     +BRNE __DELAY_USB_LOOP
                 	__DELAY_USB 2
                 ; 0000 0184 PORTB.4=1; // SPI_SS OFF
0003f8 9a2c      	SBI  0x5,4
                 ; 0000 0185 delay_us(40);
                +
0003f9 e682     +LDI R24 , LOW ( 98 )
                +__DELAY_USB_LOOP :
0003fa 958a     +DEC R24
0003fb f7f1     +BRNE __DELAY_USB_LOOP
                 	__DELAY_USB 98
                 ; 0000 0186 SPCR=0x50; // SPI
0003fc e5e0      	LDI  R30,LOW(80)
0003fd bdec      	OUT  0x2C,R30
                 ; 0000 0187 PORTB.4=0; // SPI_SS ON
0003fe 982c      	CBI  0x5,4
                 ; 0000 0188 while(PINB.6==1); // 0  MISO
                 _0x86:
0003ff 991e      	SBIC 0x3,6
000400 cffe      	RJMP _0x86
                 ; 0000 0189 SPI_SEND(SRES);
000401 e3e0      	LDI  R30,LOW(48)
000402 93ea      	ST   -Y,R30
000403 dfe5      	RCALL _SPI_SEND
                 ; 0000 018A PORTB.4=1; // SPI_SS OFF
000404 c02d      	RJMP _0x20C0008
                 ; 0000 018B }
                 ;//*******************************************************************************************
                 ;void WRITE_REG( unsigned int reg) //   
                 ; 0000 018E {  union U dat;
                 _WRITE_REG:
                 ; 0000 018F PORTB.4=0; // SPI_SS ON
000405 9722      	SBIW R28,2
                 ;	reg -> Y+2
                 ;	dat -> Y+0
000406 982c      	CBI  0x5,4
                 ; 0000 0190 while(PINB.6==1); // 0  MISO
                 _0x8D:
000407 991e      	SBIC 0x3,6
000408 cffe      	RJMP _0x8D
                 ; 0000 0191 
                 ; 0000 0192  dat.buf=reg;
000409 81ea      	LDD  R30,Y+2
00040a 81fb      	LDD  R31,Y+2+1
00040b 83e8      	ST   Y,R30
00040c 83f9      	STD  Y+1,R31
                 ; 0000 0193  SPI_SEND(dat.b[1]);  // 
00040d 81e9      	LDD  R30,Y+1
00040e 940e 117d 	CALL SUBOPT_0x1A
                 ; 0000 0194  SPI_SEND(dat.b[0]);  // 
                 ; 0000 0195 PORTB.4=1; // SPI_SS OFF
000410 9a2c      	SBI  0x5,4
                 ; 0000 0196 }
000411 c144      	RJMP _0x20C0006
                 ;//*******************************************************************************************
                 ;//********************************************************************************************
                 ;unsigned char READ_REG(unsigned char adr)  //   
                 ; 0000 019A {  unsigned char reg;
                 ; 0000 019B   PORTB.4=0; // SPI_SS ON
                 ;	adr -> Y+1
                 ;	reg -> R17
                 ; 0000 019C while(PINB.6==1); // 0  MISO
                 ; 0000 019D    SPI_SEND(adr | 0x80);   //    
                 ; 0000 019E    reg= SPI_SEND(0x00);
                 ; 0000 019F    return reg;
                 ; 0000 01A0 PORTB.4=1; // SPI_SS OFF
                 ; 0000 01A1 }
                 ;//**********************************************************************************************
                 ; void INIT_TR(void) //  
                 ; 0000 01A4  {
                 _INIT_TR:
                 ; 0000 01A5 
                 ; 0000 01A6 
                 ; 0000 01A7   for (i=0;i<35;i++)
000412 2455      	CLR  R5
000413 2466      	CLR  R6
                 _0x9A:
000414 e2e3      	LDI  R30,LOW(35)
000415 e0f0      	LDI  R31,HIGH(35)
000416 165e      	CP   R5,R30
000417 066f      	CPC  R6,R31
000418 f480      	BRSH _0x9B
                 ; 0000 01A8    {
                 ; 0000 01A9     WRITE_REG(init[i]);
                +
000419 2de5     +MOV R30 , R5
00041a 2df6     +MOV R31 , R6
                 	__GETW1R 5,6
00041b e7ac      	LDI  R26,LOW(_init*2)
00041c e0b0      	LDI  R27,HIGH(_init*2)
00041d 0fee      	LSL  R30
00041e 1fff      	ROL  R31
00041f 0fea      	ADD  R30,R26
000420 1ffb      	ADC  R31,R27
000421 940e 12a6 	CALL __GETW1PF
000423 93fa      	ST   -Y,R31
000424 93ea      	ST   -Y,R30
000425 dfdf      	RCALL _WRITE_REG
                 ; 0000 01AA     };
000426 940e 109f 	CALL SUBOPT_0x3
000428 cfeb      	RJMP _0x9A
                 _0x9B:
                 ; 0000 01AB 
                 ; 0000 01AC 
                 ; 0000 01AD 
                 ; 0000 01AE  }
000429 9508      	RET
                 ; //********************************************************************************************
                 ;void WRITE_PATABLE(void)    //  
                 ; 0000 01B1 {
                 _WRITE_PATABLE:
                 ; 0000 01B2 PORTB.4=0; // SPI_SS ON
00042a 982c      	CBI  0x5,4
                 ; 0000 01B3 while(PINB.6==1); // 0  MISO
                 _0x9E:
00042b 991e      	SBIC 0x3,6
00042c cffe      	RJMP _0x9E
                 ; 0000 01B4 WRITE_REG(0x3EC0);         //     +10dbm
00042d ece0      	LDI  R30,LOW(16064)
00042e e3fe      	LDI  R31,HIGH(16064)
00042f 93fa      	ST   -Y,R31
000430 93ea      	ST   -Y,R30
000431 dfd3      	RCALL _WRITE_REG
                 ; 0000 01B5   PORTB.4=1; // SPI_SS OFF
                 _0x20C0008:
000432 9a2c      	SBI  0x5,4
                 ; 0000 01B6 }
000433 9508      	RET
                 ;//*********************************************************************************************
                 ;void STROB(unsigned char strob)  // -
                 ; 0000 01B9 {
                 _STROB:
                 ; 0000 01BA PORTB.4=0; // SPI_SS ON
                 ;	strob -> Y+0
000434 982c      	CBI  0x5,4
                 ; 0000 01BB while(PINB.6==1); // 0  MISO
                 _0xA5:
000435 991e      	SBIC 0x3,6
000436 cffe      	RJMP _0xA5
                 ; 0000 01BC  SPI_SEND(strob);
000437 81e8      	LD   R30,Y
000438 93ea      	ST   -Y,R30
000439 dfaf      	RCALL _SPI_SEND
                 ; 0000 01BD   PORTB.4=1; // SPI_SS OFF
00043a 9a2c      	SBI  0x5,4
                 ; 0000 01BE }
00043b c07e      	RJMP _0x20C0007
                 ;//******************************************************************************************
                 ;unsigned char STATUS(void)  //  
                 ; 0000 01C1 { unsigned char st;
                 ; 0000 01C2 PORTB.4=0; // SPI_SS ON
                 ;	st -> R17
                 ; 0000 01C3 while(PINB.6==1); // 0  MISO
                 ; 0000 01C4 st=SPI_SEND(SNOP);
                 ; 0000 01C5  PORTB.4=1; // SPI_SS OFF
                 ; 0000 01C6 return st;
                 ; 0000 01C7 }
                 ;//********************************************************************************************
                 ;
                 ;void SEND_PAKET(unsigned char pktlen) //  
                 ; 0000 01CB {
                 _SEND_PAKET:
                 ; 0000 01CC   STROB(SIDLE);  //   IDLE
                 ;	pktlen -> Y+0
00043c 940e 1184 	CALL SUBOPT_0x1B
                 ; 0000 01CD   STROB(SFRX);  //  
                 ; 0000 01CE   STROB(SFTX); //  
                 ; 0000 01CF   delay_ms(1);
00043e 940e 10ae 	CALL SUBOPT_0x6
                 ; 0000 01D0   PORTB.4=0; // SPI_SS ON
000440 982c      	CBI  0x5,4
                 ; 0000 01D1   while(PINB.6==1); // 0  MISO
                 _0xB3:
000441 991e      	SBIC 0x3,6
000442 cffe      	RJMP _0xB3
                 ; 0000 01D2   SPI_SEND(0x7F);   //   
000443 e7ef      	LDI  R30,LOW(127)
000444 940e 117d 	CALL SUBOPT_0x1A
                 ; 0000 01D3   SPI_SEND(pktlen); //  
                 ; 0000 01D4   for (i=0;i<pktlen;i++)  // 
000446 2455      	CLR  R5
000447 2466      	CLR  R6
                 _0xB7:
000448 81e8      	LD   R30,Y
000449 940e 10b4 	CALL SUBOPT_0x7
00044b f440      	BRSH _0xB8
                 ; 0000 01D5   {
                 ; 0000 01D6    SPI_SEND(SPI_buffer[i]);
00044c e7a3      	LDI  R26,LOW(_SPI_buffer)
00044d e0b4      	LDI  R27,HIGH(_SPI_buffer)
00044e 940e 1190 	CALL SUBOPT_0x1C
000450 df98      	RCALL _SPI_SEND
                 ; 0000 01D7   }
000451 940e 10ba 	CALL SUBOPT_0x8
000453 cff4      	RJMP _0xB7
                 _0xB8:
                 ; 0000 01D8   PORTB.4=1; // SPI_SS OFF
000454 9a2c      	SBI  0x5,4
                 ; 0000 01D9   PCICR=0x04; //    
000455 e0e4      	LDI  R30,LOW(4)
000456 93e0 0068 	STS  104,R30
                 ; 0000 01DA   STROB(STX); // 
000458 e3e5      	LDI  R30,LOW(53)
000459 93ea      	ST   -Y,R30
00045a dfd9      	RCALL _STROB
                 ; 0000 01DB 
                 ; 0000 01DC   while(PINA.0==0); //  
                 _0xBB:
00045b 9b00      	SBIS 0x0,0
00045c cffe      	RJMP _0xBB
                 ; 0000 01DD   while(PINA.0==1); //  
                 _0xBE:
00045d 9900      	SBIC 0x0,0
00045e cffe      	RJMP _0xBE
                 ; 0000 01DE   STROB(SIDLE);  //   IDLE
00045f 940e 1184 	CALL SUBOPT_0x1B
                 ; 0000 01DF   STROB(SFRX);  //  
                 ; 0000 01E0   STROB(SFTX); //  
                 ; 0000 01E1   PCIFR|=0x04;  //  
000461 9ada      	SBI  0x1B,2
                 ; 0000 01E2   PCICR=0x05;   //    
000462 e0e5      	LDI  R30,LOW(5)
000463 93e0 0068 	STS  104,R30
                 ; 0000 01E3 }
000465 c054      	RJMP _0x20C0007
                 ;
                 ;//********************************************************************************************
                 ;unsigned char RECEIVE_PAKET(void) //  
                 ; 0000 01E7 {
                 _RECEIVE_PAKET:
                 ; 0000 01E8 unsigned char pktlen;
                 ; 0000 01E9 STROB(SIDLE);  //   IDLE
000466 931a      	ST   -Y,R17
                 ;	pktlen -> R17
000467 e3e6      	LDI  R30,LOW(54)
000468 93ea      	ST   -Y,R30
000469 dfca      	RCALL _STROB
                 ; 0000 01EA PORTB.4=0; // SPI_SS ON
00046a 982c      	CBI  0x5,4
                 ; 0000 01EB while(PINB.6==1); // 0  MISO
                 _0xC3:
00046b 991e      	SBIC 0x3,6
00046c cffe      	RJMP _0xC3
                 ; 0000 01EC SPI_SEND(0xFF);  //  
00046d efef      	LDI  R30,LOW(255)
00046e 93ea      	ST   -Y,R30
00046f df79      	RCALL _SPI_SEND
                 ; 0000 01ED pktlen=SPI_SEND(0x00); //  
000470 e0e0      	LDI  R30,LOW(0)
000471 93ea      	ST   -Y,R30
000472 df76      	RCALL _SPI_SEND
000473 2f1e      	MOV  R17,R30
                 ; 0000 01EE for (i=0;i<pktlen;i++)    // 
000474 2455      	CLR  R5
000475 2466      	CLR  R6
                 _0xC7:
000476 2fe1      	MOV  R30,R17
000477 940e 10b4 	CALL SUBOPT_0x7
000479 f478      	BRSH _0xC8
                 ; 0000 01EF    {
                 ; 0000 01F0    SPI_buffer[i]=SPI_SEND(0x00);
                +
00047a 2de5     +MOV R30 , R5
00047b 2df6     +MOV R31 , R6
                 	__GETW1R 5,6
00047c 58ed      	SUBI R30,LOW(-_SPI_buffer)
00047d 4ffb      	SBCI R31,HIGH(-_SPI_buffer)
00047e 93ff      	PUSH R31
00047f 93ef      	PUSH R30
000480 e0e0      	LDI  R30,LOW(0)
000481 93ea      	ST   -Y,R30
000482 df66      	RCALL _SPI_SEND
000483 91af      	POP  R26
000484 91bf      	POP  R27
000485 93ec      	ST   X,R30
                 ; 0000 01F1    }
000486 940e 10ba 	CALL SUBOPT_0x8
000488 cfed      	RJMP _0xC7
                 _0xC8:
                 ; 0000 01F2 PORTB.4=1; // SPI_SS OFF
000489 9a2c      	SBI  0x5,4
                 ; 0000 01F3 STROB(SFRX);
00048a e3ea      	LDI  R30,LOW(58)
00048b 93ea      	ST   -Y,R30
00048c dfa7      	RCALL _STROB
                 ; 0000 01F4 return pktlen; //  
00048d 2fe1      	MOV  R30,R17
00048e 9119      	LD   R17,Y+
00048f 9508      	RET
                 ; 0000 01F5  }
                 ; //*******************************************************************************************
                 ; void CLEAR_SPI_buffer(void) // SPI 
                 ; 0000 01F8  { for (i=0;i<64;i++)
                 _CLEAR_SPI_buffer:
000490 2455      	CLR  R5
000491 2466      	CLR  R6
                 _0xCC:
000492 e4e0      	LDI  R30,LOW(64)
000493 e0f0      	LDI  R31,HIGH(64)
000494 165e      	CP   R5,R30
000495 066f      	CPC  R6,R31
000496 f448      	BRSH _0xCD
                 ; 0000 01F9    {
                 ; 0000 01FA     SPI_buffer[i]=0x00;
000497 e7a3      	LDI  R26,LOW(_SPI_buffer)
000498 e0b4      	LDI  R27,HIGH(_SPI_buffer)
000499 0da5      	ADD  R26,R5
00049a 1db6      	ADC  R27,R6
00049b e0e0      	LDI  R30,LOW(0)
00049c 93ec      	ST   X,R30
                 ; 0000 01FB    }
00049d 940e 109f 	CALL SUBOPT_0x3
00049f cff2      	RJMP _0xCC
                 _0xCD:
                 ; 0000 01FC  }
0004a0 9508      	RET
                 ; //********************************************************************************************
                 ;  //    SPI 
                 ; unsigned char Write_SPI_buffer(flash char *str)
                 ; 0000 0200  {
                 _Write_SPI_buffer:
                 ; 0000 0201   i=0;
                 ;	*str -> Y+0
0004a1 2455      	CLR  R5
0004a2 2466      	CLR  R6
                 ; 0000 0202   while(*str)
                 _0xCE:
0004a3 81e8      	LD   R30,Y
0004a4 81f9      	LDD  R31,Y+1
0004a5 91e4      	LPM  R30,Z
0004a6 30e0      	CPI  R30,0
0004a7 f049      	BREQ _0xD0
                 ; 0000 0203   {
                 ; 0000 0204   SPI_buffer[i++]=*str++;
0004a8 940e 10ba 	CALL SUBOPT_0x8
0004aa 58ed      	SUBI R30,LOW(-_SPI_buffer)
0004ab 4ffb      	SBCI R31,HIGH(-_SPI_buffer)
0004ac 01df      	MOVW R26,R30
0004ad 940e 1195 	CALL SUBOPT_0x1D
0004af 93ec      	ST   X,R30
                 ; 0000 0205 
                 ; 0000 0206   }
0004b0 cff2      	RJMP _0xCE
                 _0xD0:
                 ; 0000 0207  return i;
0004b1 2de5      	MOV  R30,R5
0004b2 c2fc      	RJMP _0x20C0002
                 ; 0000 0208   }
                 ;//***********************************************************************************
                 ;//==================    ============================================
                 ;//******************************************************************************************
                 ;void UART_Transmit(char data) //     UART
                 ; 0000 020D {
                 _UART_Transmit:
                 ; 0000 020E while (!(UCSR0A & (1<<UDRE0))) {};
                 ;	data -> Y+0
                 _0xD1:
0004b3 91e0 00c0 	LDS  R30,192
0004b5 72e0      	ANDI R30,LOW(0x20)
0004b6 f3e1      	BREQ _0xD1
                 ; 0000 020F UDR0=data;
0004b7 81e8      	LD   R30,Y
0004b8 93e0 00c6 	STS  198,R30
                 ; 0000 0210 }
                 _0x20C0007:
0004ba 9621      	ADIW R28,1
0004bb 9508      	RET
                 ;
                 ;
                 ;//**********************************************************************************************************
                 ;       void SEND_Str(flash char *str) {        //       
                 ; 0000 0214 void SEND_Str(flash char *str) {
                 _SEND_Str:
                 ; 0000 0215         while(*str) {
                 ;	*str -> Y+0
                 _0xD4:
0004bc 81e8      	LD   R30,Y
0004bd 81f9      	LDD  R31,Y+1
0004be 91e4      	LPM  R30,Z
0004bf 30e0      	CPI  R30,0
0004c0 f029      	BREQ _0xD6
                 ; 0000 0216        UART_Transmit(*str++);
0004c1 940e 1195 	CALL SUBOPT_0x1D
0004c3 93ea      	ST   -Y,R30
0004c4 dfee      	RCALL _UART_Transmit
                 ; 0000 0217 
                 ; 0000 0218     };
0004c5 cff6      	RJMP _0xD4
                 _0xD6:
                 ; 0000 0219     delay_ms(20);
0004c6 e1e4      	LDI  R30,LOW(20)
0004c7 e0f0      	LDI  R31,HIGH(20)
0004c8 940e 119d 	CALL SUBOPT_0x1E
                 ; 0000 021A }
0004ca c2e4      	RJMP _0x20C0002
                 ;//**********************************************************************************************************
                 ;void CLEAR_BUF(void)   //    
                 ; 0000 021D {
                 _CLEAR_BUF:
                 ; 0000 021E 
                 ; 0000 021F for (i=0;i<RX_BUFFER_SIZE0;i++) {
0004cb 2455      	CLR  R5
0004cc 2466      	CLR  R6
                 _0xD8:
0004cd e0e0      	LDI  R30,LOW(512)
0004ce e0f2      	LDI  R31,HIGH(512)
0004cf 165e      	CP   R5,R30
0004d0 066f      	CPC  R6,R31
0004d1 f440      	BRSH _0xD9
                 ; 0000 0220       rx_buffer0[i]=0;
0004d2 e6a7      	LDI  R26,LOW(_rx_buffer0)
0004d3 e0b2      	LDI  R27,HIGH(_rx_buffer0)
0004d4 0da5      	ADD  R26,R5
0004d5 1db6      	ADC  R27,R6
0004d6 93ec      	ST   X,R30
                 ; 0000 0221     };
0004d7 940e 109f 	CALL SUBOPT_0x3
0004d9 cff3      	RJMP _0xD8
                 _0xD9:
                 ; 0000 0222    rx_wr_index0=0;
0004da 2433      	CLR  R3
0004db 2444      	CLR  R4
                 ; 0000 0223   // #asm("wdr")
                 ; 0000 0224 
                 ; 0000 0225 }
0004dc 9508      	RET
                 ;//**********************************************************************************************************
                 ;  char TEST_OK(void)     //      
                 ; 0000 0228   {
                 _TEST_OK:
                 ; 0000 0229   char c;
                 ; 0000 022A   char *d;
                 ; 0000 022B   char OK[]="OK";
                 ; 0000 022C   d=strstr(rx_buffer0, OK);
0004dd 9723      	SBIW R28,3
0004de e4ef      	LDI  R30,LOW(79)
0004df 83e8      	ST   Y,R30
0004e0 e4eb      	LDI  R30,LOW(75)
0004e1 83e9      	STD  Y+1,R30
0004e2 e0e0      	LDI  R30,LOW(0)
0004e3 83ea      	STD  Y+2,R30
0004e4 940e 11a1 	CALL SUBOPT_0x1F
                 ;	c -> R17
                 ;	*d -> R18,R19
                 ;	OK -> Y+4
                 ; 0000 022D   c=*d;
0004e6 940e 11af 	CALL SUBOPT_0x20
                 ; 0000 022E  // #asm("wdr")
                 ; 0000 022F  CLEAR_BUF();
                 ; 0000 0230    return c;
0004e8 9627      	ADIW R28,7
0004e9 9508      	RET
                 ; 0000 0231 
                 ; 0000 0232   }
                 ;
                 ;//**********************************************************************************************************
                 ;  char REG_NET(void)   //     
                 ; 0000 0236   {
                 _REG_NET:
                 ; 0000 0237   char c;
                 ; 0000 0238   char *d;
                 ; 0000 0239   char REG[]="+CREG:";
                 ; 0000 023A   d=strstr(rx_buffer0, REG);
0004ea 9727      	SBIW R28,7
0004eb e2eb      	LDI  R30,LOW(43)
0004ec 83e8      	ST   Y,R30
0004ed e4e3      	LDI  R30,LOW(67)
0004ee 83e9      	STD  Y+1,R30
0004ef e5e2      	LDI  R30,LOW(82)
0004f0 83ea      	STD  Y+2,R30
0004f1 e4e5      	LDI  R30,LOW(69)
0004f2 83eb      	STD  Y+3,R30
0004f3 e4e7      	LDI  R30,LOW(71)
0004f4 83ec      	STD  Y+4,R30
0004f5 e3ea      	LDI  R30,LOW(58)
0004f6 83ed      	STD  Y+5,R30
0004f7 e0e0      	LDI  R30,LOW(0)
0004f8 83ee      	STD  Y+6,R30
0004f9 940e 11a1 	CALL SUBOPT_0x1F
                 ;	c -> R17
                 ;	*d -> R18,R19
                 ;	REG -> Y+4
                 ; 0000 023B   d=d+9;
                +
0004fb 5f27     +SUBI R18 , LOW ( - 9 )
0004fc 4f3f     +SBCI R19 , HIGH ( - 9 )
                 	__ADDWRN 18,19,9
                 ; 0000 023C   c=*d;
0004fd 940e 11af 	CALL SUBOPT_0x20
                 ; 0000 023D  // #asm("wdr")
                 ; 0000 023E   CLEAR_BUF();
                 ; 0000 023F   return c;
0004ff 962b      	ADIW R28,11
000500 9508      	RET
                 ; 0000 0240   }
                 ;//********************************************************************************************
                 ;void RESET_MODEM(void)    //  
                 ; 0000 0243  {//LightDiode('O');
                 _RESET_MODEM:
                 ; 0000 0244   do {
                 _0xDB:
                 ; 0000 0245 
                 ; 0000 0246   if (PINB.1==0)
000501 9919      	SBIC 0x3,1
000502 c007      	RJMP _0xDD
                 ; 0000 0247   {
                 ; 0000 0248   PORTB.0=0;       //  
000503 9828      	CBI  0x5,0
                 ; 0000 0249   delay_ms(1000);
000504 940e 11b7 	CALL SUBOPT_0x21
                 ; 0000 024A   PORTB.0=1;
000506 9a28      	SBI  0x5,0
                 ; 0000 024B   delay_ms(250);
000507 efea      	LDI  R30,LOW(250)
000508 e0f0      	LDI  R31,HIGH(250)
000509 c006      	RJMP _0x282
                 ; 0000 024C    }
                 ; 0000 024D 
                 ; 0000 024E    else
                 _0xDD:
                 ; 0000 024F    {
                 ; 0000 0250     PORTB.2=0;       //  
00050a 982a      	CBI  0x5,2
                 ; 0000 0251   delay_ms(100);
00050b 940e 11ba 	CALL SUBOPT_0x22
                 ; 0000 0252   PORTB.2=1;
00050d 9a2a      	SBI  0x5,2
                 ; 0000 0253   delay_ms(1000);
00050e eee8      	LDI  R30,LOW(1000)
00050f e0f3      	LDI  R31,HIGH(1000)
                 _0x282:
000510 93fa      	ST   -Y,R31
000511 93ea      	ST   -Y,R30
000512 940e 129a 	CALL _delay_ms
                 ; 0000 0254    }
                 ; 0000 0255 
                 ; 0000 0256     } while(PINB.1==0);   //   
000514 9b19      	SBIS 0x3,1
000515 cfeb      	RJMP _0xDB
                 ; 0000 0257 
                 ; 0000 0258 
                 ; 0000 0259     do{      SEND_Str("AT\r");  //   
                 _0xE8:
                +
000516 ede6     +LDI R30 , LOW ( 2 * _0x0 + ( 0 ) )
000517 e0f0     +LDI R31 , HIGH ( 2 * _0x0 + ( 0 ) )
                 	__POINTW1FN _0x0,0
000518 940e 11bd 	CALL SUBOPT_0x23
                 ; 0000 025A         // #asm("wdr")
                 ; 0000 025B       } while(TEST_OK()==NULL)  ;
00051a dfc2      	RCALL _TEST_OK
00051b 30e0      	CPI  R30,0
00051c f3c9      	BREQ _0xE8
                 ; 0000 025C 
                 ; 0000 025D  do{   SEND_Str("AT+CREG?\r");   //    
                 _0xEB:
                +
00051d edea     +LDI R30 , LOW ( 2 * _0x0 + ( 4 ) )
00051e e0f0     +LDI R31 , HIGH ( 2 * _0x0 + ( 4 ) )
                 	__POINTW1FN _0x0,4
00051f 940e 11bd 	CALL SUBOPT_0x23
                 ; 0000 025E        // #asm("wdr")
                 ; 0000 025F       delay_ms(1000);
000521 940e 11b7 	CALL SUBOPT_0x21
                 ; 0000 0260      // #asm("wdr")
                 ; 0000 0261       }while (REG_NET()!='1') ;
000523 dfc6      	RCALL _REG_NET
000524 33e1      	CPI  R30,LOW(0x31)
000525 f7b9      	BRNE _0xEB
                 ; 0000 0262 
                 ; 0000 0263 
                 ; 0000 0264           SEND_Str("AT+CLIP=1\r");
                +
000526 eee4     +LDI R30 , LOW ( 2 * _0x0 + ( 14 ) )
000527 e0f0     +LDI R31 , HIGH ( 2 * _0x0 + ( 14 ) )
                 	__POINTW1FN _0x0,14
000528 940e 11bd 	CALL SUBOPT_0x23
                 ; 0000 0265            CLEAR_BUF();
00052a dfa0      	RCALL _CLEAR_BUF
                 ; 0000 0266 
                 ; 0000 0267  }
00052b 9508      	RET
                 ;
                 ;
                 ;//**********************************************************************************************************
                 ;char SET_NR(void) //      SIM 
                 ; 0000 026C {
                 _SET_NR:
                 ; 0000 026D char c;
                 ; 0000 026E char *d;
                 ; 0000 026F 
                 ; 0000 0270 d=strstr(rx_buffer0, ",\"+7");
00052c 940e 12c7 	CALL __SAVELOCR4
                 ;	c -> R17
                 ;	*d -> R18,R19
00052e 940e 11c1 	CALL SUBOPT_0x24
                +
000530 e0e0     +LDI R30 , LOW ( _0xED + ( 0 ) )
000531 e0f2     +LDI R31 , HIGH ( _0xED + ( 0 ) )
                 	__POINTW1MN _0xED,0
000532 940e 11c6 	CALL SUBOPT_0x25
000534 019f      	MOVW R18,R30
                 ; 0000 0271 if (d==NULL){c=0;
000535 2e02      	MOV  R0,R18
000536 2a03      	OR   R0,R19
000537 f411      	BRNE _0xEE
000538 e010      	LDI  R17,LOW(0)
                 ; 0000 0272           return c;}
000539 c019      	RJMP _0x20C0005
                 ; 0000 0273   d=d+4;
                 _0xEE:
                +
00053a 5f2c     +SUBI R18 , LOW ( - 4 )
00053b 4f3f     +SBCI R19 , HIGH ( - 4 )
                 	__ADDWRN 18,19,4
                 ; 0000 0274   i=0;
00053c 2455      	CLR  R5
00053d 2466      	CLR  R6
                 ; 0000 0275   while(i<12)
                 _0xEF:
00053e 940e 11ca 	CALL SUBOPT_0x26
000540 f468      	BRSH _0xF1
                 ; 0000 0276   {
                 ; 0000 0277   NR[i++]=*d;
000541 940e 10ba 	CALL SUBOPT_0x8
000543 940e 11cf 	CALL SUBOPT_0x27
                 ; 0000 0278    d=d-1;
                +
000545 5021     +SUBI R18 , LOW ( 1 )
000546 4030     +SBCI R19 , HIGH ( 1 )
                 	__SUBWRN 18,19,1
                 ; 0000 0279    NR[i++]=*d;
000547 940e 10ba 	CALL SUBOPT_0x8
000549 940e 11cf 	CALL SUBOPT_0x27
                 ; 0000 027A    d=d+3;
                +
00054b 5f2d     +SUBI R18 , LOW ( - 3 )
00054c 4f3f     +SBCI R19 , HIGH ( - 3 )
                 	__ADDWRN 18,19,3
                 ; 0000 027B   }
00054d cff0      	RJMP _0xEF
                 _0xF1:
                 ; 0000 027C   NR[10]='F';
00054e e4e6      	LDI  R30,LOW(70)
                +
00054f 93e0 0471+STS _NR + ( 10 ) , R30
                 	__PUTB1MN _NR,10
                 ; 0000 027D 
                 ; 0000 027E   CLEAR_BUF();
000551 df79      	RCALL _CLEAR_BUF
                 ; 0000 027F   c=1;
000552 e011      	LDI  R17,LOW(1)
                 ; 0000 0280   return c;
                 _0x20C0005:
000553 2fe1      	MOV  R30,R17
000554 940e 12cc 	CALL __LOADLOCR4
                 _0x20C0006:
000556 9624      	ADIW R28,4
000557 9508      	RET
                 ; 0000 0281 }
                 
                 	.DSEG
                 _0xED:
000200           	.BYTE 0x5
                 ;
                 ;//**********************************************************************************************************
                 ;//   
                 ; void BALLANSE(void)
                 ; 0000 0286  {   unsigned char S;
                 
                 	.CSEG
                 ; 0000 0287    // char XY[2];
                 ; 0000 0288     unsigned char *s1, *s2;
                 ; 0000 0289     delay_ms(4000);
                 ;	S -> R17
                 ;	*s1 -> R18,R19
                 ;	*s2 -> R20,R21
                 ; 0000 028A     CLEAR_BUF();
                 ; 0000 028B   do
                 ; 0000 028C    { if(OP==0) SEND_Str("AT+CUSD=1,\"*100#\"\r"); //  
                 ; 0000 028D      else SEND_Str("AT+CUSD=1,\"*102#\"\r");
                 ; 0000 028E    delay_ms(500);
                 ; 0000 028F    #asm("wdr")
                 ; 0000 0290     }while(TEST_OK()==0);
                 ; 0000 0291     for(i=0;i<5;i++)
                 ; 0000 0292     {
                 ; 0000 0293      if(strstr(rx_buffer0, "+CUSD:")!=NULL) break;   //   
                 ; 0000 0294      #asm("wdr")
                 ; 0000 0295      delay_ms(1000);
                 ; 0000 0296      #asm("wdr")
                 ; 0000 0297     }
                 ; 0000 0298     s1=strstr(rx_buffer0, "04110430043B0430043D0441");
                 ; 0000 0299     if(s1!=NULL)
                 ; 0000 029A     {
                 ; 0000 029B     s2=strstr(rx_buffer0, "0440");
                 ; 0000 029C     S=((s2-s1+4)/2)+13;
                 ; 0000 029D    // sprintf(XY, "%02d", S);
                 ; 0000 029E    // XX[0]=XY[0];
                 ; 0000 029F    // XX[1]=XY[1];
                 ; 0000 02A0 
                 ; 0000 02A1     printf("AT+CMGS=%02d\r",S) ;
                 ; 0000 02A2     delay_ms(100);
                 ; 0000 02A3     #asm("wdr")
                 ; 0000 02A4      SEND_Str("0001000B91");     //   PDU
                 ; 0000 02A5 
                 ; 0000 02A6       for(i=0;i<12;i++)            //  
                 ; 0000 02A7       {UART_Transmit(NR[i]);}
                 ; 0000 02A8       S=S-13;
                 ; 0000 02A9       printf("0008%02X", S);
                 ; 0000 02AA       s2=s2+4;
                 ; 0000 02AB       do{
                 ; 0000 02AC        UART_Transmit(*s1);
                 ; 0000 02AD        s1++;
                 ; 0000 02AE       }while(s1!=s2);
                 ; 0000 02AF       UART_Transmit(0x1A);
                 ; 0000 02B0              /*
                 ; 0000 02B1       delay_ms(1000);
                 ; 0000 02B2   for (i=0; i<256; i++)    //     eeprom
                 ; 0000 02B3       {eebuffer[i]=rx_buffer[i];}
                 ; 0000 02B4              */
                 ; 0000 02B5       }
                 ; 0000 02B6       CLEAR_BUF();
                 ; 0000 02B7  }
                 
                 	.DSEG
                 _0xFB:
000205           	.BYTE 0x25
                 ; //*********************************************************************************************
                 ; char CALL(unsigned char nom)
                 ; 0000 02BA  { unsigned char NOM[12];
                 
                 	.CSEG
                 _CALL:
                 ; 0000 02BB    char *d1;
                 ; 0000 02BC    char s;
                 ; 0000 02BD     #asm("sei")
000558 972c      	SBIW R28,12
000559 940e 12c7 	CALL __SAVELOCR4
                 ;	nom -> Y+16
                 ;	NOM -> Y+4
                 ;	*d1 -> R16,R17
                 ;	s -> R19
00055b 9478      	sei
                 ; 0000 02BE    LD3.Led.l1=2;
00055c 940e 1081 	CALL SUBOPT_0x0
00055e 940e 11d7 	CALL SUBOPT_0x28
                 ; 0000 02BF    LOAD_LD();
                 ; 0000 02C0 switch (nom)
000560 89e8      	LDD  R30,Y+16
000561 940e 1169 	CALL SUBOPT_0x17
                 ; 0000 02C1     {
                 ; 0000 02C2      case 1:
000563 f419      	BRNE _0x106
                 ; 0000 02C3 			{
                 ; 0000 02C4 			    SEND_Str("AT+CPBF=\"N1\"\r");
                +
000564 e6e1     +LDI R30 , LOW ( 2 * _0x0 + ( 139 ) )
000565 e0f1     +LDI R31 , HIGH ( 2 * _0x0 + ( 139 ) )
                 	__POINTW1FN _0x0,139
000566 c022      	RJMP _0x284
                 ; 0000 02C5 				break;
                 ; 0000 02C6 			}
                 ; 0000 02C7 
                 ; 0000 02C8      case 2:
                 _0x106:
000567 30e2      	CPI  R30,LOW(0x2)
000568 e0a0      	LDI  R26,HIGH(0x2)
000569 07fa      	CPC  R31,R26
00056a f419      	BRNE _0x107
                 ; 0000 02C9 			{
                 ; 0000 02CA 			    SEND_Str("AT+CPBF=\"N2\"\r");
                +
00056b e6ef     +LDI R30 , LOW ( 2 * _0x0 + ( 153 ) )
00056c e0f1     +LDI R31 , HIGH ( 2 * _0x0 + ( 153 ) )
                 	__POINTW1FN _0x0,153
00056d c01b      	RJMP _0x284
                 ; 0000 02CB 				break;
                 ; 0000 02CC 			}
                 ; 0000 02CD 
                 ; 0000 02CE      case 3:
                 _0x107:
00056e 30e3      	CPI  R30,LOW(0x3)
00056f e0a0      	LDI  R26,HIGH(0x3)
000570 07fa      	CPC  R31,R26
000571 f419      	BRNE _0x108
                 ; 0000 02CF 			{
                 ; 0000 02D0 			    SEND_Str("AT+CPBF=\"N3\"\r");
                +
000572 e7ed     +LDI R30 , LOW ( 2 * _0x0 + ( 167 ) )
000573 e0f1     +LDI R31 , HIGH ( 2 * _0x0 + ( 167 ) )
                 	__POINTW1FN _0x0,167
000574 c014      	RJMP _0x284
                 ; 0000 02D1 				break;
                 ; 0000 02D2 			}
                 ; 0000 02D3 
                 ; 0000 02D4      case 4:
                 _0x108:
000575 30e4      	CPI  R30,LOW(0x4)
000576 e0a0      	LDI  R26,HIGH(0x4)
000577 07fa      	CPC  R31,R26
000578 f419      	BRNE _0x109
                 ; 0000 02D5 			{
                 ; 0000 02D6 			    SEND_Str("AT+CPBF=\"N4\"\r");
                +
000579 e8eb     +LDI R30 , LOW ( 2 * _0x0 + ( 181 ) )
00057a e0f1     +LDI R31 , HIGH ( 2 * _0x0 + ( 181 ) )
                 	__POINTW1FN _0x0,181
00057b c00d      	RJMP _0x284
                 ; 0000 02D7 				break;
                 ; 0000 02D8 			}
                 ; 0000 02D9 
                 ; 0000 02DA      case 5:
                 _0x109:
00057c 30e5      	CPI  R30,LOW(0x5)
00057d e0a0      	LDI  R26,HIGH(0x5)
00057e 07fa      	CPC  R31,R26
00057f f419      	BRNE _0x10A
                 ; 0000 02DB 			{
                 ; 0000 02DC 			    SEND_Str("AT+CPBF=\"N5\"\r");
                +
000580 e9e9     +LDI R30 , LOW ( 2 * _0x0 + ( 195 ) )
000581 e0f1     +LDI R31 , HIGH ( 2 * _0x0 + ( 195 ) )
                 	__POINTW1FN _0x0,195
000582 c006      	RJMP _0x284
                 ; 0000 02DD 				break;
                 ; 0000 02DE 			}
                 ; 0000 02DF 
                 ; 0000 02E0      case 6:
                 _0x10A:
000583 30e6      	CPI  R30,LOW(0x6)
000584 e0a0      	LDI  R26,HIGH(0x6)
000585 07fa      	CPC  R31,R26
000586 f429      	BRNE _0x105
                 ; 0000 02E1 			{
                 ; 0000 02E2 			    SEND_Str("AT+CPBF=\"N6\"\r");
                +
000587 eae7     +LDI R30 , LOW ( 2 * _0x0 + ( 209 ) )
000588 e0f1     +LDI R31 , HIGH ( 2 * _0x0 + ( 209 ) )
                 	__POINTW1FN _0x0,209
                 _0x284:
000589 93fa      	ST   -Y,R31
00058a 93ea      	ST   -Y,R30
00058b df30      	RCALL _SEND_Str
                 ; 0000 02E3 				break;
                 ; 0000 02E4 			}
                 ; 0000 02E5 
                 ; 0000 02E6 
                 ; 0000 02E7     }
                 _0x105:
                 ; 0000 02E8     delay_ms(100);
00058c 940e 11ba 	CALL SUBOPT_0x22
                 ; 0000 02E9     d1=strstr(rx_buffer0, ",\"+7");
00058e 940e 11c1 	CALL SUBOPT_0x24
                +
000590 e2ea     +LDI R30 , LOW ( _0x10C + ( 0 ) )
000591 e0f2     +LDI R31 , HIGH ( _0x10C + ( 0 ) )
                 	__POINTW1MN _0x10C,0
000592 940e 11c6 	CALL SUBOPT_0x25
000594 018f      	MOVW R16,R30
                 ; 0000 02EA     if(d1!=NULL)
000595 2e00      	MOV  R0,R16
000596 2a01      	OR   R0,R17
000597 f0c1      	BREQ _0x10D
                 ; 0000 02EB     {
                 ; 0000 02EC      d1=d1+2;
                +
000598 5f0e     +SUBI R16 , LOW ( - 2 )
000599 4f1f     +SBCI R17 , HIGH ( - 2 )
                 	__ADDWRN 16,17,2
                 ; 0000 02ED      for(i=0;i<12;i++)
00059a 2455      	CLR  R5
00059b 2466      	CLR  R6
                 _0x10F:
00059c 940e 11ca 	CALL SUBOPT_0x26
00059e f480      	BRSH _0x110
                 ; 0000 02EE       { NOM[i]=*d1;
                +
00059f 2de5     +MOV R30 , R5
0005a0 2df6     +MOV R31 , R6
                 	__GETW1R 5,6
0005a1 01de      	MOVW R26,R28
0005a2 9614      	ADIW R26,4
0005a3 0fea      	ADD  R30,R26
0005a4 1ffb      	ADC  R31,R27
0005a5 010f      	MOVW R0,R30
0005a6 01d8      	MOVW R26,R16
0005a7 91ec      	LD   R30,X
0005a8 01d0      	MOVW R26,R0
0005a9 93ec      	ST   X,R30
                 ; 0000 02EF        d1=d1+1;
                +
0005aa 5f0f     +SUBI R16 , LOW ( - 1 )
0005ab 4f1f     +SBCI R17 , HIGH ( - 1 )
                 	__ADDWRN 16,17,1
                 ; 0000 02F0       }
0005ac 940e 109f 	CALL SUBOPT_0x3
0005ae cfed      	RJMP _0x10F
                 _0x110:
                 ; 0000 02F1     }
                 ; 0000 02F2 
                 ; 0000 02F3     else {s=0;
0005af c007      	RJMP _0x111
                 _0x10D:
0005b0 e030      	LDI  R19,LOW(0)
                 ; 0000 02F4     LD3.Led.l1=1;
0005b1 940e 1081 	CALL SUBOPT_0x0
0005b3 940e 11dd 	CALL SUBOPT_0x29
                 ; 0000 02F5      return s; }
0005b5 2fe3      	MOV  R30,R19
0005b6 c02c      	RJMP _0x20C0004
                 _0x111:
                 ; 0000 02F6     CLEAR_BUF();
0005b7 df13      	RCALL _CLEAR_BUF
                 ; 0000 02F7    SEND_Str("AT+CSTA=145\r");
                +
0005b8 ebe5     +LDI R30 , LOW ( 2 * _0x0 + ( 223 ) )
0005b9 e0f1     +LDI R31 , HIGH ( 2 * _0x0 + ( 223 ) )
                 	__POINTW1FN _0x0,223
0005ba 940e 11bd 	CALL SUBOPT_0x23
                 ; 0000 02F8    delay_ms(100);
0005bc 940e 11ba 	CALL SUBOPT_0x22
                 ; 0000 02F9    SEND_Str("AT*PSSTKI=0\r");
                +
0005be ece2     +LDI R30 , LOW ( 2 * _0x0 + ( 236 ) )
0005bf e0f1     +LDI R31 , HIGH ( 2 * _0x0 + ( 236 ) )
                 	__POINTW1FN _0x0,236
0005c0 940e 11bd 	CALL SUBOPT_0x23
                 ; 0000 02FA    delay_ms(100);
0005c2 940e 11ba 	CALL SUBOPT_0x22
                 ; 0000 02FB    SEND_Str("ATD\"");
                +
0005c4 ecef     +LDI R30 , LOW ( 2 * _0x0 + ( 249 ) )
0005c5 e0f1     +LDI R31 , HIGH ( 2 * _0x0 + ( 249 ) )
                 	__POINTW1FN _0x0,249
0005c6 940e 11bd 	CALL SUBOPT_0x23
                 ; 0000 02FC    for(i=0;i<12;i++) UART_Transmit(NOM[i]);
0005c8 2455      	CLR  R5
0005c9 2466      	CLR  R6
                 _0x113:
0005ca 940e 11ca 	CALL SUBOPT_0x26
0005cc f440      	BRSH _0x114
0005cd 01de      	MOVW R26,R28
0005ce 9614      	ADIW R26,4
0005cf 940e 1190 	CALL SUBOPT_0x1C
0005d1 dee1      	RCALL _UART_Transmit
0005d2 940e 109f 	CALL SUBOPT_0x3
0005d4 cff5      	RJMP _0x113
                 _0x114:
                 ; 0000 02FD SEND_Str("\";\r");
                +
0005d5 ede4     +LDI R30 , LOW ( 2 * _0x0 + ( 254 ) )
0005d6 e0f1     +LDI R31 , HIGH ( 2 * _0x0 + ( 254 ) )
                 	__POINTW1FN _0x0,254
0005d7 940e 11bd 	CALL SUBOPT_0x23
                 ; 0000 02FE    delay_ms(10000);
0005d9 e1e0      	LDI  R30,LOW(10000)
0005da e2f7      	LDI  R31,HIGH(10000)
0005db 940e 119d 	CALL SUBOPT_0x1E
                 ; 0000 02FF     CLEAR_BUF();
0005dd deed      	RCALL _CLEAR_BUF
                 ; 0000 0300    LD3.Led.l1=1;
0005de 940e 1081 	CALL SUBOPT_0x0
0005e0 940e 11dd 	CALL SUBOPT_0x29
                 ; 0000 0301    LOAD_LD();
0005e2 dc3c      	RCALL _LOAD_LD
                 ; 0000 0302  }
                 _0x20C0004:
0005e3 940e 12cc 	CALL __LOADLOCR4
0005e5 9661      	ADIW R28,17
0005e6 9508      	RET
                 
                 	.DSEG
                 _0x10C:
00022a           	.BYTE 0x5
                 ; //**********************************************************************************************
                 ;  char SEND_SMS(unsigned char nom, unsigned char ndat)
                 ; 0000 0305 
                 ; 0000 0306   {      //unsigned char NOM[12];
                 
                 	.CSEG
                 _SEND_SMS:
                 ; 0000 0307    //char *d;
                 ; 0000 0308    char s;
                 ; 0000 0309   #asm("sei")
0005e7 931a      	ST   -Y,R17
                 ;	nom -> Y+2
                 ;	ndat -> Y+1
                 ;	s -> R17
0005e8 9478      	sei
                 ; 0000 030A   LD3.Led.l1=2;
0005e9 940e 1081 	CALL SUBOPT_0x0
0005eb 940e 11d7 	CALL SUBOPT_0x28
                 ; 0000 030B    LOAD_LD();
                 ; 0000 030C switch (nom)
0005ed 81ea      	LDD  R30,Y+2
0005ee 940e 1169 	CALL SUBOPT_0x17
                 ; 0000 030D     {
                 ; 0000 030E      case 1:
0005f0 f419      	BRNE _0x118
                 ; 0000 030F 			{
                 ; 0000 0310 			    SEND_Str("AT+CPBF=\"N1\"\r");
                +
0005f1 e6e1     +LDI R30 , LOW ( 2 * _0x0 + ( 139 ) )
0005f2 e0f1     +LDI R31 , HIGH ( 2 * _0x0 + ( 139 ) )
                 	__POINTW1FN _0x0,139
0005f3 c022      	RJMP _0x285
                 ; 0000 0311 				break;
                 ; 0000 0312 			}
                 ; 0000 0313 
                 ; 0000 0314      case 2:
                 _0x118:
0005f4 30e2      	CPI  R30,LOW(0x2)
0005f5 e0a0      	LDI  R26,HIGH(0x2)
0005f6 07fa      	CPC  R31,R26
0005f7 f419      	BRNE _0x119
                 ; 0000 0315 			{
                 ; 0000 0316 			    SEND_Str("AT+CPBF=\"N2\"\r");
                +
0005f8 e6ef     +LDI R30 , LOW ( 2 * _0x0 + ( 153 ) )
0005f9 e0f1     +LDI R31 , HIGH ( 2 * _0x0 + ( 153 ) )
                 	__POINTW1FN _0x0,153
0005fa c01b      	RJMP _0x285
                 ; 0000 0317 				break;
                 ; 0000 0318 			}
                 ; 0000 0319 
                 ; 0000 031A      case 3:
                 _0x119:
0005fb 30e3      	CPI  R30,LOW(0x3)
0005fc e0a0      	LDI  R26,HIGH(0x3)
0005fd 07fa      	CPC  R31,R26
0005fe f419      	BRNE _0x11A
                 ; 0000 031B 			{
                 ; 0000 031C 			    SEND_Str("AT+CPBF=\"N3\"\r");
                +
0005ff e7ed     +LDI R30 , LOW ( 2 * _0x0 + ( 167 ) )
000600 e0f1     +LDI R31 , HIGH ( 2 * _0x0 + ( 167 ) )
                 	__POINTW1FN _0x0,167
000601 c014      	RJMP _0x285
                 ; 0000 031D 				break;
                 ; 0000 031E 			}
                 ; 0000 031F 
                 ; 0000 0320      case 4:
                 _0x11A:
000602 30e4      	CPI  R30,LOW(0x4)
000603 e0a0      	LDI  R26,HIGH(0x4)
000604 07fa      	CPC  R31,R26
000605 f419      	BRNE _0x11B
                 ; 0000 0321 			{
                 ; 0000 0322 			    SEND_Str("AT+CPBF=\"N4\"\r");
                +
000606 e8eb     +LDI R30 , LOW ( 2 * _0x0 + ( 181 ) )
000607 e0f1     +LDI R31 , HIGH ( 2 * _0x0 + ( 181 ) )
                 	__POINTW1FN _0x0,181
000608 c00d      	RJMP _0x285
                 ; 0000 0323 				break;
                 ; 0000 0324 			}
                 ; 0000 0325 
                 ; 0000 0326      case 5:
                 _0x11B:
000609 30e5      	CPI  R30,LOW(0x5)
00060a e0a0      	LDI  R26,HIGH(0x5)
00060b 07fa      	CPC  R31,R26
00060c f419      	BRNE _0x11C
                 ; 0000 0327 			{
                 ; 0000 0328 			    SEND_Str("AT+CPBF=\"N5\"\r");
                +
00060d e9e9     +LDI R30 , LOW ( 2 * _0x0 + ( 195 ) )
00060e e0f1     +LDI R31 , HIGH ( 2 * _0x0 + ( 195 ) )
                 	__POINTW1FN _0x0,195
00060f c006      	RJMP _0x285
                 ; 0000 0329 				break;
                 ; 0000 032A 			}
                 ; 0000 032B 
                 ; 0000 032C      case 6:
                 _0x11C:
000610 30e6      	CPI  R30,LOW(0x6)
000611 e0a0      	LDI  R26,HIGH(0x6)
000612 07fa      	CPC  R31,R26
000613 f429      	BRNE _0x117
                 ; 0000 032D 			{
                 ; 0000 032E 			    SEND_Str("AT+CPBF=\"N6\"\r");
                +
000614 eae7     +LDI R30 , LOW ( 2 * _0x0 + ( 209 ) )
000615 e0f1     +LDI R31 , HIGH ( 2 * _0x0 + ( 209 ) )
                 	__POINTW1FN _0x0,209
                 _0x285:
000616 93fa      	ST   -Y,R31
000617 93ea      	ST   -Y,R30
000618 dea3      	RCALL _SEND_Str
                 ; 0000 032F 				break;
                 ; 0000 0330 			}
                 ; 0000 0331 
                 ; 0000 0332 
                 ; 0000 0333     }
                 _0x117:
                 ; 0000 0334     delay_ms(100);
000619 940e 11ba 	CALL SUBOPT_0x22
                 ; 0000 0335 
                 ; 0000 0336    if(SET_NR()==0) {s=0; LD3.Led.l1=1; return s; }
00061b df10      	RCALL _SET_NR
00061c 30e0      	CPI  R30,0
00061d f439      	BRNE _0x11E
00061e e010      	LDI  R17,LOW(0)
00061f 940e 1081 	CALL SUBOPT_0x0
000621 940e 11dd 	CALL SUBOPT_0x29
000623 2fe1      	MOV  R30,R17
000624 c074      	RJMP _0x20C0003
                 ; 0000 0337 
                 ; 0000 0338     do{SEND_Str("AT+CMGF=0\r");     //  PDU 
                 _0x11E:
                 _0x120:
                +
000625 ede8     +LDI R30 , LOW ( 2 * _0x0 + ( 258 ) )
000626 e0f1     +LDI R31 , HIGH ( 2 * _0x0 + ( 258 ) )
                 	__POINTW1FN _0x0,258
000627 940e 11bd 	CALL SUBOPT_0x23
                 ; 0000 0339        }while(TEST_OK()==0);
000629 deb3      	RCALL _TEST_OK
00062a 30e0      	CPI  R30,0
00062b f3c9      	BREQ _0x120
                 ; 0000 033A 
                 ; 0000 033B     do{ CLEAR_BUF();
                 _0x123:
00062c de9e      	RCALL _CLEAR_BUF
                 ; 0000 033C      SEND_Str("AT+CMGS=45\r");  //        (39   )
                +
00062d eee3     +LDI R30 , LOW ( 2 * _0x0 + ( 269 ) )
00062e e0f1     +LDI R31 , HIGH ( 2 * _0x0 + ( 269 ) )
                 	__POINTW1FN _0x0,269
00062f 940e 11bd 	CALL SUBOPT_0x23
                 ; 0000 033D       }while (strrchr(rx_buffer0, '>')==NULL);
000631 940e 11c1 	CALL SUBOPT_0x24
000633 e3ee      	LDI  R30,LOW(62)
000634 93ea      	ST   -Y,R30
000635 940e 105f 	CALL _strrchr
000637 9730      	SBIW R30,0
000638 f399      	BREQ _0x123
                 ; 0000 033E       CLEAR_BUF();
000639 de91      	RCALL _CLEAR_BUF
                 ; 0000 033F 
                 ; 0000 0340       SEND_Str("0001000B91");     //   PDU
                +
00063a e4ed     +LDI R30 , LOW ( 2 * _0x0 + ( 119 ) )
00063b e0f1     +LDI R31 , HIGH ( 2 * _0x0 + ( 119 ) )
                 	__POINTW1FN _0x0,119
00063c 940e 11bd 	CALL SUBOPT_0x23
                 ; 0000 0341 
                 ; 0000 0342       for(i=0;i<12;i++)            //  
00063e 2455      	CLR  R5
00063f 2466      	CLR  R6
                 _0x126:
000640 940e 11ca 	CALL SUBOPT_0x26
000642 f430      	BRSH _0x127
                 ; 0000 0343       {UART_Transmit(NR[i]);}
000643 940e 11e2 	CALL SUBOPT_0x2A
000645 de6d      	RCALL _UART_Transmit
000646 940e 109f 	CALL SUBOPT_0x3
000648 cff7      	RJMP _0x126
                 _0x127:
                 ; 0000 0344 
                 ; 0000 0345       // SEND_Str("00081A0414043204350440044C0020043E0442043A0440044B04420430\x1A"); //   
                 ; 0000 0346       SEND_Str("00082004140430044204470438043A0020");
                +
000649 eeef     +LDI R30 , LOW ( 2 * _0x0 + ( 281 ) )
00064a e0f1     +LDI R31 , HIGH ( 2 * _0x0 + ( 281 ) )
                 	__POINTW1FN _0x0,281
00064b 940e 11bd 	CALL SUBOPT_0x23
                 ; 0000 0347       switch (ndat)
00064d 81e9      	LDD  R30,Y+1
00064e 940e 1169 	CALL SUBOPT_0x17
                 ; 0000 0348       {
                 ; 0000 0349         case 1:
000650 f419      	BRNE _0x12B
                 ; 0000 034A 			{
                 ; 0000 034B 			    SEND_Str("0031");
                +
000651 e1e2     +LDI R30 , LOW ( 2 * _0x0 + ( 316 ) )
000652 e0f2     +LDI R31 , HIGH ( 2 * _0x0 + ( 316 ) )
                 	__POINTW1FN _0x0,316
000653 c030      	RJMP _0x286
                 ; 0000 034C 				break;
                 ; 0000 034D 			}
                 ; 0000 034E 
                 ; 0000 034F        case 2:
                 _0x12B:
000654 30e2      	CPI  R30,LOW(0x2)
000655 e0a0      	LDI  R26,HIGH(0x2)
000656 07fa      	CPC  R31,R26
000657 f419      	BRNE _0x12C
                 ; 0000 0350 			{
                 ; 0000 0351 			    SEND_Str("0032");
                +
000658 e1e7     +LDI R30 , LOW ( 2 * _0x0 + ( 321 ) )
000659 e0f2     +LDI R31 , HIGH ( 2 * _0x0 + ( 321 ) )
                 	__POINTW1FN _0x0,321
00065a c029      	RJMP _0x286
                 ; 0000 0352 				break;
                 ; 0000 0353 			}
                 ; 0000 0354 
                 ; 0000 0355         case 3:
                 _0x12C:
00065b 30e3      	CPI  R30,LOW(0x3)
00065c e0a0      	LDI  R26,HIGH(0x3)
00065d 07fa      	CPC  R31,R26
00065e f419      	BRNE _0x12D
                 ; 0000 0356 			{
                 ; 0000 0357 			    SEND_Str("0033");
                +
00065f e1ec     +LDI R30 , LOW ( 2 * _0x0 + ( 326 ) )
000660 e0f2     +LDI R31 , HIGH ( 2 * _0x0 + ( 326 ) )
                 	__POINTW1FN _0x0,326
000661 c022      	RJMP _0x286
                 ; 0000 0358 				break;
                 ; 0000 0359 			}
                 ; 0000 035A         case 4:
                 _0x12D:
000662 30e4      	CPI  R30,LOW(0x4)
000663 e0a0      	LDI  R26,HIGH(0x4)
000664 07fa      	CPC  R31,R26
000665 f419      	BRNE _0x12E
                 ; 0000 035B 			{
                 ; 0000 035C 			    SEND_Str("0034");
                +
000666 e2e1     +LDI R30 , LOW ( 2 * _0x0 + ( 331 ) )
000667 e0f2     +LDI R31 , HIGH ( 2 * _0x0 + ( 331 ) )
                 	__POINTW1FN _0x0,331
000668 c01b      	RJMP _0x286
                 ; 0000 035D 				break;
                 ; 0000 035E 			}
                 ; 0000 035F 
                 ; 0000 0360         case 5:
                 _0x12E:
000669 30e5      	CPI  R30,LOW(0x5)
00066a e0a0      	LDI  R26,HIGH(0x5)
00066b 07fa      	CPC  R31,R26
00066c f419      	BRNE _0x12F
                 ; 0000 0361 			{
                 ; 0000 0362 			    SEND_Str("0035");
                +
00066d e2e6     +LDI R30 , LOW ( 2 * _0x0 + ( 336 ) )
00066e e0f2     +LDI R31 , HIGH ( 2 * _0x0 + ( 336 ) )
                 	__POINTW1FN _0x0,336
00066f c014      	RJMP _0x286
                 ; 0000 0363 				break;
                 ; 0000 0364 			}
                 ; 0000 0365 
                 ; 0000 0366        case 6:
                 _0x12F:
000670 30e6      	CPI  R30,LOW(0x6)
000671 e0a0      	LDI  R26,HIGH(0x6)
000672 07fa      	CPC  R31,R26
000673 f419      	BRNE _0x130
                 ; 0000 0367 			{
                 ; 0000 0368 			    SEND_Str("0036");
                +
000674 e2eb     +LDI R30 , LOW ( 2 * _0x0 + ( 341 ) )
000675 e0f2     +LDI R31 , HIGH ( 2 * _0x0 + ( 341 ) )
                 	__POINTW1FN _0x0,341
000676 c00d      	RJMP _0x286
                 ; 0000 0369 				break;
                 ; 0000 036A 			}
                 ; 0000 036B 
                 ; 0000 036C        case 7:
                 _0x130:
000677 30e7      	CPI  R30,LOW(0x7)
000678 e0a0      	LDI  R26,HIGH(0x7)
000679 07fa      	CPC  R31,R26
00067a f419      	BRNE _0x131
                 ; 0000 036D 			{
                 ; 0000 036E 			    SEND_Str("0037");
                +
00067b e3e0     +LDI R30 , LOW ( 2 * _0x0 + ( 346 ) )
00067c e0f2     +LDI R31 , HIGH ( 2 * _0x0 + ( 346 ) )
                 	__POINTW1FN _0x0,346
00067d c006      	RJMP _0x286
                 ; 0000 036F 				break;
                 ; 0000 0370 			}
                 ; 0000 0371 
                 ; 0000 0372 
                 ; 0000 0373        case 8:
                 _0x131:
00067e 30e8      	CPI  R30,LOW(0x8)
00067f e0a0      	LDI  R26,HIGH(0x8)
000680 07fa      	CPC  R31,R26
000681 f429      	BRNE _0x12A
                 ; 0000 0374 			{
                 ; 0000 0375 			    SEND_Str("0038");
                +
000682 e3e5     +LDI R30 , LOW ( 2 * _0x0 + ( 351 ) )
000683 e0f2     +LDI R31 , HIGH ( 2 * _0x0 + ( 351 ) )
                 	__POINTW1FN _0x0,351
                 _0x286:
000684 93fa      	ST   -Y,R31
000685 93ea      	ST   -Y,R30
000686 de35      	RCALL _SEND_Str
                 ; 0000 0376 				break;
                 ; 0000 0377 			}
                 ; 0000 0378 
                 ; 0000 0379 
                 ; 0000 037A 
                 ; 0000 037B        }
                 _0x12A:
                 ; 0000 037C        SEND_Str("00200442044004350432043E04330430\x1A");
                +
000687 e3ea     +LDI R30 , LOW ( 2 * _0x0 + ( 356 ) )
000688 e0f2     +LDI R31 , HIGH ( 2 * _0x0 + ( 356 ) )
                 	__POINTW1FN _0x0,356
000689 940e 11bd 	CALL SUBOPT_0x23
                 ; 0000 037D        delay_ms(3000);
00068b ebe8      	LDI  R30,LOW(3000)
00068c e0fb      	LDI  R31,HIGH(3000)
00068d 940e 119d 	CALL SUBOPT_0x1E
                 ; 0000 037E      //  for(i=0;i<256;i++) STAT[i]=rx_buffer0[i];
                 ; 0000 037F         CLEAR_BUF();
00068f de3b      	RCALL _CLEAR_BUF
                 ; 0000 0380        delay_ms(5000);
000690 e8e8      	LDI  R30,LOW(5000)
000691 e1f3      	LDI  R31,HIGH(5000)
000692 940e 119d 	CALL SUBOPT_0x1E
                 ; 0000 0381     LD3.Led.l1=1;
000694 940e 1081 	CALL SUBOPT_0x0
000696 940e 11dd 	CALL SUBOPT_0x29
                 ; 0000 0382    LOAD_LD();
000698 db86      	RCALL _LOAD_LD
                 ; 0000 0383   }
                 _0x20C0003:
000699 8118      	LDD  R17,Y+0
00069a 9623      	ADIW R28,3
00069b 9508      	RET
                 ;//*****************************************************************************************************************
                 ;unsigned char WRITE_NUMBER(unsigned char nr) //   
                 ; 0000 0386 { unsigned char povtor;
                 _WRITE_NUMBER:
                 ; 0000 0387 povtor=128;
00069c 931a      	ST   -Y,R17
                 ;	nr -> Y+1
                 ;	povtor -> R17
00069d e810      	LDI  R17,LOW(128)
                 ; 0000 0388  x=strstr(rx_buffer0, "\"+7");
00069e 940e 11c1 	CALL SUBOPT_0x24
                +
0006a0 e2ef     +LDI R30 , LOW ( _0x133 + ( 0 ) )
0006a1 e0f2     +LDI R31 , HIGH ( _0x133 + ( 0 ) )
                 	__POINTW1MN _0x133,0
0006a2 940e 11c6 	CALL SUBOPT_0x25
0006a4 940e 11e5 	CALL SUBOPT_0x2B
                 ; 0000 0389  if(x!=NULL)
0006a6 f411      	BRNE PC+3
0006a7 940c 07ae 	JMP _0x134
                 ; 0000 038A  { x++;
0006a9 e0e1      	LDI  R30,LOW(1)
0006aa e0f0      	LDI  R31,HIGH(1)
                +
0006ab 0e9e     +ADD R9 , R30
0006ac 1eaf     +ADC R10 , R31
                 	__ADDWRR 9,10,30,31
                 ; 0000 038B   for(i=0;i<12;i++) NR[i]=*x++;
0006ad 2455      	CLR  R5
0006ae 2466      	CLR  R6
                 _0x136:
0006af 940e 11ca 	CALL SUBOPT_0x26
0006b1 f478      	BRSH _0x137
                +
0006b2 2da5     +MOV R26 , R5
0006b3 2db6     +MOV R27 , R6
                 	__GETW2R 5,6
0006b4 59a9      	SUBI R26,LOW(-_NR)
0006b5 4fbb      	SBCI R27,HIGH(-_NR)
                +
0006b6 2de9     +MOV R30 , R9
0006b7 2dfa     +MOV R31 , R10
                 	__GETW1R 9,10
0006b8 9631      	ADIW R30,1
                +
0006b9 2e9e     +MOV R9 , R30
0006ba 2eaf     +MOV R10 , R31
                 	__PUTW1R 9,10
0006bb 9731      	SBIW R30,1
0006bc 81e0      	LD   R30,Z
0006bd 93ec      	ST   X,R30
0006be 940e 109f 	CALL SUBOPT_0x3
0006c0 cfee      	RJMP _0x136
                 _0x137:
                 ; 0000 038D CLEAR_BUF();
0006c1 de09      	RCALL _CLEAR_BUF
                 ; 0000 038E   delay_ms(100);
0006c2 940e 11ba 	CALL SUBOPT_0x22
                 ; 0000 038F   SEND_Str("AT+CPBF=\"N1\"\r");
                +
0006c4 e6e1     +LDI R30 , LOW ( 2 * _0x0 + ( 139 ) )
0006c5 e0f1     +LDI R31 , HIGH ( 2 * _0x0 + ( 139 ) )
                 	__POINTW1FN _0x0,139
0006c6 940e 11bd 	CALL SUBOPT_0x23
                 ; 0000 0390   delay_ms(100);
0006c8 940e 11ba 	CALL SUBOPT_0x22
                 ; 0000 0391   SEND_Str("AT+CPBF=\"N2\"\r");
                +
0006ca e6ef     +LDI R30 , LOW ( 2 * _0x0 + ( 153 ) )
0006cb e0f1     +LDI R31 , HIGH ( 2 * _0x0 + ( 153 ) )
                 	__POINTW1FN _0x0,153
0006cc 940e 11bd 	CALL SUBOPT_0x23
                 ; 0000 0392   delay_ms(100);
0006ce 940e 11ba 	CALL SUBOPT_0x22
                 ; 0000 0393   SEND_Str("AT+CPBF=\"N3\"\r");
                +
0006d0 e7ed     +LDI R30 , LOW ( 2 * _0x0 + ( 167 ) )
0006d1 e0f1     +LDI R31 , HIGH ( 2 * _0x0 + ( 167 ) )
                 	__POINTW1FN _0x0,167
0006d2 940e 11bd 	CALL SUBOPT_0x23
                 ; 0000 0394   delay_ms(100);
0006d4 940e 11ba 	CALL SUBOPT_0x22
                 ; 0000 0395   SEND_Str("AT+CPBF=\"N4\"\r");
                +
0006d6 e8eb     +LDI R30 , LOW ( 2 * _0x0 + ( 181 ) )
0006d7 e0f1     +LDI R31 , HIGH ( 2 * _0x0 + ( 181 ) )
                 	__POINTW1FN _0x0,181
0006d8 940e 11bd 	CALL SUBOPT_0x23
                 ; 0000 0396   delay_ms(100);
0006da 940e 11ba 	CALL SUBOPT_0x22
                 ; 0000 0397   SEND_Str("AT+CPBF=\"N5\"\r");
                +
0006dc e9e9     +LDI R30 , LOW ( 2 * _0x0 + ( 195 ) )
0006dd e0f1     +LDI R31 , HIGH ( 2 * _0x0 + ( 195 ) )
                 	__POINTW1FN _0x0,195
0006de 940e 11bd 	CALL SUBOPT_0x23
                 ; 0000 0398   delay_ms(100);
0006e0 940e 11ba 	CALL SUBOPT_0x22
                 ; 0000 0399   SEND_Str("AT+CPBF=\"N6\"\r");
                +
0006e2 eae7     +LDI R30 , LOW ( 2 * _0x0 + ( 209 ) )
0006e3 e0f1     +LDI R31 , HIGH ( 2 * _0x0 + ( 209 ) )
                 	__POINTW1FN _0x0,209
0006e4 940e 11bd 	CALL SUBOPT_0x23
                 ; 0000 039A   delay_ms(100);
0006e6 940e 11ba 	CALL SUBOPT_0x22
                 ; 0000 039B 
                 ; 0000 039C 
                 ; 0000 039D 
                 ; 0000 039E     switch (nr)
0006e8 81e9      	LDD  R30,Y+1
0006e9 940e 1169 	CALL SUBOPT_0x17
                 ; 0000 039F     {
                 ; 0000 03A0    case 1:{
0006eb f4e9      	BRNE _0x13B
                 ; 0000 03A1            if(strstr(rx_buffer0, NR)!=NULL) {povtor=NULL; return povtor;}
0006ec 940e 11c1 	CALL SUBOPT_0x24
0006ee 940e 11ea 	CALL SUBOPT_0x2C
0006f0 9730      	SBIW R30,0
0006f1 f019      	BREQ _0x13C
0006f2 e010      	LDI  R17,LOW(0)
0006f3 2fe1      	MOV  R30,R17
0006f4 c0b9      	RJMP _0x20C0001
                 ; 0000 03A2          else {
                 _0x13C:
                 ; 0000 03A3            SEND_Str("AT+CPBW=1,\"");
                +
0006f5 e5ec     +LDI R30 , LOW ( 2 * _0x0 + ( 390 ) )
0006f6 e0f2     +LDI R31 , HIGH ( 2 * _0x0 + ( 390 ) )
                 	__POINTW1FN _0x0,390
0006f7 940e 11bd 	CALL SUBOPT_0x23
                 ; 0000 03A4           for(i=0;i<12;i++) UART_Transmit(NR[i]);
0006f9 2455      	CLR  R5
0006fa 2466      	CLR  R6
                 _0x13F:
0006fb 940e 11ca 	CALL SUBOPT_0x26
0006fd f430      	BRSH _0x140
0006fe 940e 11e2 	CALL SUBOPT_0x2A
000700 ddb2      	RCALL _UART_Transmit
000701 940e 109f 	CALL SUBOPT_0x3
000703 cff7      	RJMP _0x13F
                 _0x140:
                 ; 0000 03A5 SEND_Str("\",145,\"N1\"\r");
                +
000704 e6e8     +LDI R30 , LOW ( 2 * _0x0 + ( 402 ) )
000705 e0f2     +LDI R31 , HIGH ( 2 * _0x0 + ( 402 ) )
                 	__POINTW1FN _0x0,402
000706 940e 11bd 	CALL SUBOPT_0x23
                 ; 0000 03A6            }
                 ; 0000 03A7          break;
000708 c0a4      	RJMP _0x13A
                 ; 0000 03A8        }
                 ; 0000 03A9 
                 ; 0000 03AA     case 2:{
                 _0x13B:
000709 30e2      	CPI  R30,LOW(0x2)
00070a e0a0      	LDI  R26,HIGH(0x2)
00070b 07fa      	CPC  R31,R26
00070c f4e9      	BRNE _0x141
                 ; 0000 03AB            if(strstr(rx_buffer0, NR)!=NULL) {povtor=NULL; return povtor;}
00070d 940e 11c1 	CALL SUBOPT_0x24
00070f 940e 11ea 	CALL SUBOPT_0x2C
000711 9730      	SBIW R30,0
000712 f019      	BREQ _0x142
000713 e010      	LDI  R17,LOW(0)
000714 2fe1      	MOV  R30,R17
000715 c098      	RJMP _0x20C0001
                 ; 0000 03AC          else {
                 _0x142:
                 ; 0000 03AD            SEND_Str("AT+CPBW=2,\"");
                +
000716 e7e4     +LDI R30 , LOW ( 2 * _0x0 + ( 414 ) )
000717 e0f2     +LDI R31 , HIGH ( 2 * _0x0 + ( 414 ) )
                 	__POINTW1FN _0x0,414
000718 940e 11bd 	CALL SUBOPT_0x23
                 ; 0000 03AE           for(i=0;i<12;i++) UART_Transmit(NR[i]);
00071a 2455      	CLR  R5
00071b 2466      	CLR  R6
                 _0x145:
00071c 940e 11ca 	CALL SUBOPT_0x26
00071e f430      	BRSH _0x146
00071f 940e 11e2 	CALL SUBOPT_0x2A
000721 dd91      	RCALL _UART_Transmit
000722 940e 109f 	CALL SUBOPT_0x3
000724 cff7      	RJMP _0x145
                 _0x146:
                 ; 0000 03AF SEND_Str("\",145,\"N2\"\r");
                +
000725 e8e0     +LDI R30 , LOW ( 2 * _0x0 + ( 426 ) )
000726 e0f2     +LDI R31 , HIGH ( 2 * _0x0 + ( 426 ) )
                 	__POINTW1FN _0x0,426
000727 940e 11bd 	CALL SUBOPT_0x23
                 ; 0000 03B0            }
                 ; 0000 03B1         break;
000729 c083      	RJMP _0x13A
                 ; 0000 03B2        }
                 ; 0000 03B3 
                 ; 0000 03B4       case 3:{
                 _0x141:
00072a 30e3      	CPI  R30,LOW(0x3)
00072b e0a0      	LDI  R26,HIGH(0x3)
00072c 07fa      	CPC  R31,R26
00072d f4e9      	BRNE _0x147
                 ; 0000 03B5            if(strstr(rx_buffer0, NR)!=NULL) {povtor=NULL; return povtor;}
00072e 940e 11c1 	CALL SUBOPT_0x24
000730 940e 11ea 	CALL SUBOPT_0x2C
000732 9730      	SBIW R30,0
000733 f019      	BREQ _0x148
000734 e010      	LDI  R17,LOW(0)
000735 2fe1      	MOV  R30,R17
000736 c077      	RJMP _0x20C0001
                 ; 0000 03B6          else {
                 _0x148:
                 ; 0000 03B7            SEND_Str("AT+CPBW=3,\"");
                +
000737 e8ec     +LDI R30 , LOW ( 2 * _0x0 + ( 438 ) )
000738 e0f2     +LDI R31 , HIGH ( 2 * _0x0 + ( 438 ) )
                 	__POINTW1FN _0x0,438
000739 940e 11bd 	CALL SUBOPT_0x23
                 ; 0000 03B8           for(i=0;i<12;i++) UART_Transmit(NR[i]);
00073b 2455      	CLR  R5
00073c 2466      	CLR  R6
                 _0x14B:
00073d 940e 11ca 	CALL SUBOPT_0x26
00073f f430      	BRSH _0x14C
000740 940e 11e2 	CALL SUBOPT_0x2A
000742 dd70      	RCALL _UART_Transmit
000743 940e 109f 	CALL SUBOPT_0x3
000745 cff7      	RJMP _0x14B
                 _0x14C:
                 ; 0000 03B9 SEND_Str("\",145,\"N3\"\r");
                +
000746 e9e8     +LDI R30 , LOW ( 2 * _0x0 + ( 450 ) )
000747 e0f2     +LDI R31 , HIGH ( 2 * _0x0 + ( 450 ) )
                 	__POINTW1FN _0x0,450
000748 940e 11bd 	CALL SUBOPT_0x23
                 ; 0000 03BA            }
                 ; 0000 03BB          break;
00074a c062      	RJMP _0x13A
                 ; 0000 03BC        }
                 ; 0000 03BD 
                 ; 0000 03BE       case 4:{
                 _0x147:
00074b 30e4      	CPI  R30,LOW(0x4)
00074c e0a0      	LDI  R26,HIGH(0x4)
00074d 07fa      	CPC  R31,R26
00074e f4e9      	BRNE _0x14D
                 ; 0000 03BF            if(strstr(rx_buffer0, NR)!=NULL) {povtor=NULL; return povtor;}
00074f 940e 11c1 	CALL SUBOPT_0x24
000751 940e 11ea 	CALL SUBOPT_0x2C
000753 9730      	SBIW R30,0
000754 f019      	BREQ _0x14E
000755 e010      	LDI  R17,LOW(0)
000756 2fe1      	MOV  R30,R17
000757 c056      	RJMP _0x20C0001
                 ; 0000 03C0          else {
                 _0x14E:
                 ; 0000 03C1            SEND_Str("AT+CPBW=4,\"");
                +
000758 eae4     +LDI R30 , LOW ( 2 * _0x0 + ( 462 ) )
000759 e0f2     +LDI R31 , HIGH ( 2 * _0x0 + ( 462 ) )
                 	__POINTW1FN _0x0,462
00075a 940e 11bd 	CALL SUBOPT_0x23
                 ; 0000 03C2           for(i=0;i<12;i++) UART_Transmit(NR[i]);
00075c 2455      	CLR  R5
00075d 2466      	CLR  R6
                 _0x151:
00075e 940e 11ca 	CALL SUBOPT_0x26
000760 f430      	BRSH _0x152
000761 940e 11e2 	CALL SUBOPT_0x2A
000763 dd4f      	RCALL _UART_Transmit
000764 940e 109f 	CALL SUBOPT_0x3
000766 cff7      	RJMP _0x151
                 _0x152:
                 ; 0000 03C3 SEND_Str("\",145,\"N4\"\r");
                +
000767 ebe0     +LDI R30 , LOW ( 2 * _0x0 + ( 474 ) )
000768 e0f2     +LDI R31 , HIGH ( 2 * _0x0 + ( 474 ) )
                 	__POINTW1FN _0x0,474
000769 940e 11bd 	CALL SUBOPT_0x23
                 ; 0000 03C4            }
                 ; 0000 03C5          break;
00076b c041      	RJMP _0x13A
                 ; 0000 03C6        }
                 ; 0000 03C7 
                 ; 0000 03C8 
                 ; 0000 03C9        case 5:{
                 _0x14D:
00076c 30e5      	CPI  R30,LOW(0x5)
00076d e0a0      	LDI  R26,HIGH(0x5)
00076e 07fa      	CPC  R31,R26
00076f f4e9      	BRNE _0x153
                 ; 0000 03CA            if(strstr(rx_buffer0, NR)!=NULL) {povtor=NULL; return povtor;}
000770 940e 11c1 	CALL SUBOPT_0x24
000772 940e 11ea 	CALL SUBOPT_0x2C
000774 9730      	SBIW R30,0
000775 f019      	BREQ _0x154
000776 e010      	LDI  R17,LOW(0)
000777 2fe1      	MOV  R30,R17
000778 c035      	RJMP _0x20C0001
                 ; 0000 03CB          else {
                 _0x154:
                 ; 0000 03CC            SEND_Str("AT+CPBW=5,\"");
                +
000779 ebec     +LDI R30 , LOW ( 2 * _0x0 + ( 486 ) )
00077a e0f2     +LDI R31 , HIGH ( 2 * _0x0 + ( 486 ) )
                 	__POINTW1FN _0x0,486
00077b 940e 11bd 	CALL SUBOPT_0x23
                 ; 0000 03CD           for(i=0;i<12;i++) UART_Transmit(NR[i]);
00077d 2455      	CLR  R5
00077e 2466      	CLR  R6
                 _0x157:
00077f 940e 11ca 	CALL SUBOPT_0x26
000781 f430      	BRSH _0x158
000782 940e 11e2 	CALL SUBOPT_0x2A
000784 dd2e      	RCALL _UART_Transmit
000785 940e 109f 	CALL SUBOPT_0x3
000787 cff7      	RJMP _0x157
                 _0x158:
                 ; 0000 03CE SEND_Str("\",145,\"N5\"\r");
                +
000788 ece8     +LDI R30 , LOW ( 2 * _0x0 + ( 498 ) )
000789 e0f2     +LDI R31 , HIGH ( 2 * _0x0 + ( 498 ) )
                 	__POINTW1FN _0x0,498
00078a 940e 11bd 	CALL SUBOPT_0x23
                 ; 0000 03CF            }
                 ; 0000 03D0           break;
00078c c020      	RJMP _0x13A
                 ; 0000 03D1        }
                 ; 0000 03D2 
                 ; 0000 03D3          case 6:{
                 _0x153:
00078d 30e6      	CPI  R30,LOW(0x6)
00078e e0a0      	LDI  R26,HIGH(0x6)
00078f 07fa      	CPC  R31,R26
000790 f4e1      	BRNE _0x13A
                 ; 0000 03D4            if(strstr(rx_buffer0, NR)!=NULL) {povtor=NULL; return povtor;}
000791 940e 11c1 	CALL SUBOPT_0x24
000793 940e 11ea 	CALL SUBOPT_0x2C
000795 9730      	SBIW R30,0
000796 f019      	BREQ _0x15A
000797 e010      	LDI  R17,LOW(0)
000798 2fe1      	MOV  R30,R17
000799 c014      	RJMP _0x20C0001
                 ; 0000 03D5          else {
                 _0x15A:
                 ; 0000 03D6            SEND_Str("AT+CPBW=6,\"");
                +
00079a ede4     +LDI R30 , LOW ( 2 * _0x0 + ( 510 ) )
00079b e0f2     +LDI R31 , HIGH ( 2 * _0x0 + ( 510 ) )
                 	__POINTW1FN _0x0,510
00079c 940e 11bd 	CALL SUBOPT_0x23
                 ; 0000 03D7           for(i=0;i<12;i++) UART_Transmit(NR[i]);
00079e 2455      	CLR  R5
00079f 2466      	CLR  R6
                 _0x15D:
0007a0 940e 11ca 	CALL SUBOPT_0x26
0007a2 f430      	BRSH _0x15E
0007a3 940e 11e2 	CALL SUBOPT_0x2A
0007a5 dd0d      	RCALL _UART_Transmit
0007a6 940e 109f 	CALL SUBOPT_0x3
0007a8 cff7      	RJMP _0x15D
                 _0x15E:
                 ; 0000 03D8 SEND_Str("\",145,\"N6\"\r");
                +
0007a9 eee0     +LDI R30 , LOW ( 2 * _0x0 + ( 522 ) )
0007aa e0f2     +LDI R31 , HIGH ( 2 * _0x0 + ( 522 ) )
                 	__POINTW1FN _0x0,522
0007ab 940e 11bd 	CALL SUBOPT_0x23
                 ; 0000 03D9            }
                 ; 0000 03DA           break;
                 ; 0000 03DB        }
                 ; 0000 03DC 
                 ; 0000 03DD 
                 ; 0000 03DE 
                 ; 0000 03DF   }
                 _0x13A:
                 ; 0000 03E0   return povtor;
0007ad 2fe1      	MOV  R30,R17
                 ; 0000 03E1  }
                 ; 0000 03E2 
                 ; 0000 03E3 }
                 _0x134:
                 _0x20C0001:
0007ae 8118      	LDD  R17,Y+0
                 _0x20C0002:
0007af 9622      	ADIW R28,2
0007b0 9508      	RET
                 
                 	.DSEG
                 _0x133:
00022f           	.BYTE 0x4
                 ;//======================================================================================================================================
                 ;//===========================================================================================================================
                 ;//=====================================================================================================================================
                 ;// Pin change 0-7 interrupt service routine
                 ;interrupt [PC_INT0] void pin_change_isr0(void) //  
                 ; 0000 03E9 {
                 
                 	.CSEG
                 _pin_change_isr0:
0007b1 940e 11ed 	CALL SUBOPT_0x2D
                 ; 0000 03EA unsigned char len;
                 ; 0000 03EB // char *x;
                 ; 0000 03EC PCICR=0x00;
0007b3 931a      	ST   -Y,R17
                 ;	len -> R17
0007b4 e0e0      	LDI  R30,LOW(0)
0007b5 93e0 0068 	STS  104,R30
                 ; 0000 03ED 
                 ; 0000 03EE while(PINA.1==1);
                 _0x15F:
0007b7 9901      	SBIC 0x0,1
0007b8 cffe      	RJMP _0x15F
                 ; 0000 03EF 
                 ; 0000 03F0 len=RECEIVE_PAKET();
0007b9 dcac      	RCALL _RECEIVE_PAKET
0007ba 2f1e      	MOV  R17,R30
                 ; 0000 03F1 
                 ; 0000 03F2 x=strstr(SPI_buffer,"BRELOK");
0007bb 940e 11fb 	CALL SUBOPT_0x2E
                +
0007bd e3e3     +LDI R30 , LOW ( _0x162 + ( 0 ) )
0007be e0f2     +LDI R31 , HIGH ( _0x162 + ( 0 ) )
                 	__POINTW1MN _0x162,0
0007bf 940e 11c6 	CALL SUBOPT_0x25
0007c1 940e 11e5 	CALL SUBOPT_0x2B
                 ; 0000 03F3  if (x!=NULL)
0007c3 f411      	BRNE PC+3
0007c4 940c 0813 	JMP _0x163
                 ; 0000 03F4    { x=x+6;
0007c6 e0e6      	LDI  R30,LOW(6)
0007c7 e0f0      	LDI  R31,HIGH(6)
                +
0007c8 0e9e     +ADD R9 , R30
0007c9 1eaf     +ADC R10 , R31
                 	__ADDWRR 9,10,30,31
                 ; 0000 03F5    if(PGM!=0) PROGRAM_DAT('B');
0007ca 2077      	TST  R7
0007cb f021      	BREQ _0x164
0007cc e4e2      	LDI  R30,LOW(66)
0007cd 93ea      	ST   -Y,R30
0007ce dab3      	RCALL _PROGRAM_DAT
                 ; 0000 03F6   else if((VALID_CODE(x,BREL1,6)!=NULL)||(VALID_CODE(x,BREL2,6)!=NULL)||(VALID_CODE(x,BREL3,6)!=NULL)||(VALID_CODE(x,BREL4,6)!=NULL)||(VALID_CODE(x,BREL5,6)!=NULL)||(VALID_CODE(x,BREL6,6)!=NULL))
0007cf c043      	RJMP _0x165
                 _0x164:
0007d0 940e 1121 	CALL SUBOPT_0x11
0007d2 f479      	BRNE _0x167
0007d3 940e 112d 	CALL SUBOPT_0x12
0007d5 f461      	BRNE _0x167
0007d6 940e 1139 	CALL SUBOPT_0x13
0007d8 f449      	BRNE _0x167
0007d9 940e 1145 	CALL SUBOPT_0x14
0007db f431      	BRNE _0x167
0007dc 940e 1151 	CALL SUBOPT_0x15
0007de f419      	BRNE _0x167
0007df 940e 115d 	CALL SUBOPT_0x16
0007e1 f189      	BREQ _0x166
                 _0x167:
                 ; 0000 03F7    {  if(strstr(SPI_buffer,"CHANGE")!=NULL)
0007e2 940e 11fb 	CALL SUBOPT_0x2E
                +
0007e4 e3ea     +LDI R30 , LOW ( _0x162 + ( 7 ) )
0007e5 e0f2     +LDI R31 , HIGH ( _0x162 + ( 7 ) )
                 	__POINTW1MN _0x162,7
0007e6 940e 11c6 	CALL SUBOPT_0x25
0007e8 9730      	SBIW R30,0
0007e9 f081      	BREQ _0x169
                 ; 0000 03F8       {if(LD3.Led.l2==1) LD3.Led.l2=2;
0007ea 940e 1081 	CALL SUBOPT_0x0
0007ec 73e0      	ANDI R30,LOW(0x30)
0007ed 31e0      	CPI  R30,LOW(0x10)
0007ee f429      	BRNE _0x16A
0007ef 940e 1081 	CALL SUBOPT_0x0
0007f1 7cef      	ANDI R30,LOW(0xCF)
0007f2 62e0      	ORI  R30,0x20
0007f3 c004      	RJMP _0x287
                 ; 0000 03F9       else LD3.Led.l2=1;}
                 _0x16A:
0007f4 940e 1081 	CALL SUBOPT_0x0
0007f6 7cef      	ANDI R30,LOW(0xCF)
0007f7 61e0      	ORI  R30,0x10
                 _0x287:
0007f8 940e 12b6 	CALL __EEPROMWRB
                 ; 0000 03FA 
                 ; 0000 03FB 
                 ; 0000 03FC      CLEAR_SPI_buffer();
                 _0x169:
0007fa dc95      	RCALL _CLEAR_SPI_buffer
                 ; 0000 03FD      STROB(SIDLE);
0007fb 940e 1184 	CALL SUBOPT_0x1B
                 ; 0000 03FE      STROB(SFRX);
                 ; 0000 03FF      STROB(SFTX);
                 ; 0000 0400      if (LD3.Led.l2==2 )
0007fd 940e 1081 	CALL SUBOPT_0x0
0007ff 73e0      	ANDI R30,LOW(0x30)
000800 32e0      	CPI  R30,LOW(0x20)
000801 f419      	BRNE _0x16C
                 ; 0000 0401      {len=Write_SPI_buffer("SECUR");
                +
000802 efea     +LDI R30 , LOW ( 2 * _0x0 + ( 548 ) )
000803 e0f2     +LDI R31 , HIGH ( 2 * _0x0 + ( 548 ) )
                 	__POINTW1FN _0x0,548
000804 c002      	RJMP _0x288
                 ; 0000 0402       }
                 ; 0000 0403      else
                 _0x16C:
                 ; 0000 0404      {len=Write_SPI_buffer("IDLE");
                +
000805 e0e0     +LDI R30 , LOW ( 2 * _0x0 + ( 554 ) )
000806 e0f3     +LDI R31 , HIGH ( 2 * _0x0 + ( 554 ) )
                 	__POINTW1FN _0x0,554
                 _0x288:
000807 93fa      	ST   -Y,R31
000808 93ea      	ST   -Y,R30
000809 dc97      	RCALL _Write_SPI_buffer
00080a 2f1e      	MOV  R17,R30
                 ; 0000 0405         }
                 ; 0000 0406     delay_ms(3);
00080b e0e3      	LDI  R30,LOW(3)
00080c e0f0      	LDI  R31,HIGH(3)
00080d 940e 119d 	CALL SUBOPT_0x1E
                 ; 0000 0407     SEND_PAKET(len);
00080f 931a      	ST   -Y,R17
000810 dc2b      	RCALL _SEND_PAKET
                 ; 0000 0408     delay_ms(1);
000811 940e 10ae 	CALL SUBOPT_0x6
                 ; 0000 0409     }
                 ; 0000 040A   }
                 _0x166:
                 _0x165:
                 ; 0000 040B 
                 ; 0000 040C 
                 ; 0000 040D 
                 ; 0000 040E    x=strstr(SPI_buffer,"DATCHIK");
                 _0x163:
000813 940e 11fb 	CALL SUBOPT_0x2E
                +
000815 e4e1     +LDI R30 , LOW ( _0x162 + ( 14 ) )
000816 e0f2     +LDI R31 , HIGH ( _0x162 + ( 14 ) )
                 	__POINTW1MN _0x162,14
000817 940e 11c6 	CALL SUBOPT_0x25
000819 940e 11e5 	CALL SUBOPT_0x2B
                 ; 0000 040F  if(x!=NULL)  //   
00081b f411      	BRNE PC+3
00081c 940c 08d2 	JMP _0x16E
                 ; 0000 0410 {   x=x+7;
00081e e0e7      	LDI  R30,LOW(7)
00081f e0f0      	LDI  R31,HIGH(7)
                +
000820 0e9e     +ADD R9 , R30
000821 1eaf     +ADC R10 , R31
                 	__ADDWRR 9,10,30,31
                 ; 0000 0411  if(PGM!=0) PROGRAM_DAT('D'); //      
000822 2077      	TST  R7
000823 f021      	BREQ _0x16F
000824 e4e4      	LDI  R30,LOW(68)
000825 93ea      	ST   -Y,R30
000826 da5b      	RCALL _PROGRAM_DAT
                 ; 0000 0412  else  if(LD3.Led.l2==2)   //  
000827 c0aa      	RJMP _0x170
                 _0x16F:
000828 940e 1081 	CALL SUBOPT_0x0
00082a 73e0      	ANDI R30,LOW(0x30)
00082b 32e0      	CPI  R30,LOW(0x20)
00082c f011      	BREQ PC+3
00082d 940c 08d2 	JMP _0x171
                 ; 0000 0413 {
                 ; 0000 0414 if((( VALID_CODE(x,DAT1,6))!=NULL)&&(LD1.Led.l1==1))
00082f 940e 10c1 	CALL SUBOPT_0x9
000831 f029      	BREQ _0x173
000832 940e 10a9 	CALL SUBOPT_0x5
000834 7ce0      	ANDI R30,LOW(0xC0)
000835 34e0      	CPI  R30,LOW(0x40)
000836 f009      	BREQ _0x174
                 _0x173:
000837 c00c      	RJMP _0x172
                 _0x174:
                 ; 0000 0415    {
                 ; 0000 0416 
                 ; 0000 0417 
                 ; 0000 0418     LD1.Led.l1=2;
000838 940e 10a9 	CALL SUBOPT_0x5
00083a 940e 11d7 	CALL SUBOPT_0x28
                 ; 0000 0419     LOAD_LD();
                 ; 0000 041A     SEND_SMS(1,1);
00083c e0e1      	LDI  R30,LOW(1)
00083d 93ea      	ST   -Y,R30
00083e 940e 1200 	CALL SUBOPT_0x2F
                 ; 0000 041B     CALL(1);
                 ; 0000 041C     LD1.Led.l1=1;
000840 940e 11dd 	CALL SUBOPT_0x29
                 ; 0000 041D     LOAD_LD();
000842 940e 021f 	CALL _LOAD_LD
                 ; 0000 041E 
                 ; 0000 041F    }
                 ; 0000 0420 
                 ; 0000 0421 if((( VALID_CODE(x,DAT2,6))!=NULL)&&(LD1.Led.l2==1))
                 _0x172:
000844 940e 10cd 	CALL SUBOPT_0xA
000846 f029      	BREQ _0x176
000847 940e 10a9 	CALL SUBOPT_0x5
000849 73e0      	ANDI R30,LOW(0x30)
00084a 31e0      	CPI  R30,LOW(0x10)
00084b f009      	BREQ _0x177
                 _0x176:
00084c c009      	RJMP _0x175
                 _0x177:
                 ; 0000 0422    {
                 ; 0000 0423 
                 ; 0000 0424     LD1.Led.l2=2;
00084d 940e 10a9 	CALL SUBOPT_0x5
00084f 940e 1208 	CALL SUBOPT_0x30
                 ; 0000 0425     LOAD_LD();
                 ; 0000 0426     SEND_SMS(1,2);
000851 e0e2      	LDI  R30,LOW(2)
000852 940e 1200 	CALL SUBOPT_0x2F
                 ; 0000 0427     CALL(1);
                 ; 0000 0428     LD1.Led.l2=1;
000854 940e 1211 	CALL SUBOPT_0x31
                 ; 0000 0429     LOAD_LD();
                 ; 0000 042A 
                 ; 0000 042B    }
                 ; 0000 042C 
                 ; 0000 042D if((( VALID_CODE(x,DAT3,6))!=NULL)&&(LD1.Led.l3==1))
                 _0x175:
000856 940e 10d9 	CALL SUBOPT_0xB
000858 f029      	BREQ _0x179
000859 940e 10a9 	CALL SUBOPT_0x5
00085b 70ec      	ANDI R30,LOW(0xC)
00085c 30e4      	CPI  R30,LOW(0x4)
00085d f009      	BREQ _0x17A
                 _0x179:
00085e c00d      	RJMP _0x178
                 _0x17A:
                 ; 0000 042E    {
                 ; 0000 042F 
                 ; 0000 0430     LD1.Led.l3=2;
00085f 940e 10a9 	CALL SUBOPT_0x5
000861 940e 1217 	CALL SUBOPT_0x32
                 ; 0000 0431      LOAD_LD();
                 ; 0000 0432     SEND_SMS(1,3);
000863 e0e3      	LDI  R30,LOW(3)
000864 940e 1220 	CALL SUBOPT_0x33
                 ; 0000 0433     CALL(1);
                 ; 0000 0434      LD3.Led.l1=1;
000866 940e 1081 	CALL SUBOPT_0x0
000868 940e 11dd 	CALL SUBOPT_0x29
                 ; 0000 0435      LOAD_LD();
00086a 940e 021f 	CALL _LOAD_LD
                 ; 0000 0436 
                 ; 0000 0437    }
                 ; 0000 0438 
                 ; 0000 0439 if((( VALID_CODE(x,DAT4,6))!=NULL)&&(LD1.Led.l4==1))
                 _0x178:
00086c 940e 10e5 	CALL SUBOPT_0xC
00086e f029      	BREQ _0x17C
00086f 940e 10a9 	CALL SUBOPT_0x5
000871 70e3      	ANDI R30,LOW(0x3)
000872 30e1      	CPI  R30,LOW(0x1)
000873 f009      	BREQ _0x17D
                 _0x17C:
000874 c009      	RJMP _0x17B
                 _0x17D:
                 ; 0000 043A    {
                 ; 0000 043B 
                 ; 0000 043C     LD1.Led.l4=2;
000875 940e 10a9 	CALL SUBOPT_0x5
000877 940e 1227 	CALL SUBOPT_0x34
                 ; 0000 043D     LOAD_LD();
                 ; 0000 043E     SEND_SMS(1,4);
000879 e0e4      	LDI  R30,LOW(4)
00087a 940e 1200 	CALL SUBOPT_0x2F
                 ; 0000 043F     CALL(1);
                 ; 0000 0440     LD1.Led.l4=1;
00087c 940e 1230 	CALL SUBOPT_0x35
                 ; 0000 0441     LOAD_LD();
                 ; 0000 0442 
                 ; 0000 0443    }
                 ; 0000 0444 
                 ; 0000 0445 if((( VALID_CODE(x,DAT5,6))!=NULL)&&(LD2.Led.l1==1))
                 _0x17B:
00087e 940e 10f1 	CALL SUBOPT_0xD
000880 f029      	BREQ _0x17F
000881 940e 10a4 	CALL SUBOPT_0x4
000883 7ce0      	ANDI R30,LOW(0xC0)
000884 34e0      	CPI  R30,LOW(0x40)
000885 f009      	BREQ _0x180
                 _0x17F:
000886 c00f      	RJMP _0x17E
                 _0x180:
                 ; 0000 0446    {
                 ; 0000 0447 
                 ; 0000 0448 
                 ; 0000 0449      LD2.Led.l1=2;
000887 940e 10a4 	CALL SUBOPT_0x4
000889 940e 11d7 	CALL SUBOPT_0x28
                 ; 0000 044A      LOAD_LD();
                 ; 0000 044B      SEND_SMS(1,5);
00088b e0e1      	LDI  R30,LOW(1)
00088c 93ea      	ST   -Y,R30
00088d e0e5      	LDI  R30,LOW(5)
00088e 940e 1220 	CALL SUBOPT_0x33
                 ; 0000 044C      CALL(1);
                 ; 0000 044D      LD2.Led.l1=1;
000890 940e 10a4 	CALL SUBOPT_0x4
000892 940e 11dd 	CALL SUBOPT_0x29
                 ; 0000 044E      LOAD_LD();
000894 940e 021f 	CALL _LOAD_LD
                 ; 0000 044F 
                 ; 0000 0450    }
                 ; 0000 0451 
                 ; 0000 0452 if((( VALID_CODE(x,DAT6,6))!=NULL)&&(LD2.Led.l2==1))
                 _0x17E:
000896 940e 10fd 	CALL SUBOPT_0xE
000898 f029      	BREQ _0x182
000899 940e 10a4 	CALL SUBOPT_0x4
00089b 73e0      	ANDI R30,LOW(0x30)
00089c 31e0      	CPI  R30,LOW(0x10)
00089d f009      	BREQ _0x183
                 _0x182:
00089e c00b      	RJMP _0x181
                 _0x183:
                 ; 0000 0453    {
                 ; 0000 0454 
                 ; 0000 0455 
                 ; 0000 0456     LD2.Led.l2=2;
00089f 940e 10a4 	CALL SUBOPT_0x4
0008a1 940e 1208 	CALL SUBOPT_0x30
                 ; 0000 0457      LOAD_LD();
                 ; 0000 0458      SEND_SMS(1,6);
0008a3 e0e6      	LDI  R30,LOW(6)
0008a4 940e 1220 	CALL SUBOPT_0x33
                 ; 0000 0459     CALL(1);
                 ; 0000 045A      LD2.Led.l2=1;
0008a6 940e 10a4 	CALL SUBOPT_0x4
0008a8 940e 1211 	CALL SUBOPT_0x31
                 ; 0000 045B      LOAD_LD();
                 ; 0000 045C 
                 ; 0000 045D    }
                 ; 0000 045E 
                 ; 0000 045F if((( VALID_CODE(x,DAT7,6))!=NULL)&&(LD2.Led.l3==1))
                 _0x181:
0008aa 940e 1109 	CALL SUBOPT_0xF
0008ac f029      	BREQ _0x185
0008ad 940e 10a4 	CALL SUBOPT_0x4
0008af 70ec      	ANDI R30,LOW(0xC)
0008b0 30e4      	CPI  R30,LOW(0x4)
0008b1 f009      	BREQ _0x186
                 _0x185:
0008b2 c00b      	RJMP _0x184
                 _0x186:
                 ; 0000 0460    {
                 ; 0000 0461 
                 ; 0000 0462 
                 ; 0000 0463     LD2.Led.l3=2;
0008b3 940e 10a4 	CALL SUBOPT_0x4
0008b5 940e 1217 	CALL SUBOPT_0x32
                 ; 0000 0464     LOAD_LD();
                 ; 0000 0465     SEND_SMS(1,7);
0008b7 e0e7      	LDI  R30,LOW(7)
0008b8 940e 1220 	CALL SUBOPT_0x33
                 ; 0000 0466     CALL(1);
                 ; 0000 0467     LD2.Led.l3=1;
0008ba 940e 10a4 	CALL SUBOPT_0x4
0008bc 940e 1236 	CALL SUBOPT_0x36
                 ; 0000 0468     LOAD_LD();
                 ; 0000 0469 
                 ; 0000 046A    }
                 ; 0000 046B 
                 ; 0000 046C if((( VALID_CODE(x,DAT8,6))!=NULL)&&(LD2.Led.l4==1))
                 _0x184:
0008be 940e 1115 	CALL SUBOPT_0x10
0008c0 f029      	BREQ _0x188
0008c1 940e 10a4 	CALL SUBOPT_0x4
0008c3 70e3      	ANDI R30,LOW(0x3)
0008c4 30e1      	CPI  R30,LOW(0x1)
0008c5 f009      	BREQ _0x189
                 _0x188:
0008c6 c00b      	RJMP _0x187
                 _0x189:
                 ; 0000 046D    {
                 ; 0000 046E 
                 ; 0000 046F 
                 ; 0000 0470     LD2.Led.l4=2;
0008c7 940e 10a4 	CALL SUBOPT_0x4
0008c9 940e 1227 	CALL SUBOPT_0x34
                 ; 0000 0471     LOAD_LD();
                 ; 0000 0472     SEND_SMS(1,8);
0008cb e0e8      	LDI  R30,LOW(8)
0008cc 940e 1220 	CALL SUBOPT_0x33
                 ; 0000 0473     CALL(1);
                 ; 0000 0474      LD2.Led.l4=1;
0008ce 940e 10a4 	CALL SUBOPT_0x4
0008d0 940e 1230 	CALL SUBOPT_0x35
                 ; 0000 0475      LOAD_LD();
                 ; 0000 0476 
                 ; 0000 0477    }
                 ; 0000 0478 
                 ; 0000 0479 }
                 _0x187:
                 ; 0000 047A }
                 _0x171:
                 _0x170:
                 ; 0000 047B CLEAR_SPI_buffer();
                 _0x16E:
0008d2 dbbd      	RCALL _CLEAR_SPI_buffer
                 ; 0000 047C STROB(SIDLE);
0008d3 940e 1184 	CALL SUBOPT_0x1B
                 ; 0000 047D STROB(SFRX);
                 ; 0000 047E STROB(SFTX);
                 ; 0000 047F STROB(SRX);
0008d5 e3e4      	LDI  R30,LOW(52)
0008d6 93ea      	ST   -Y,R30
0008d7 db5c      	RCALL _STROB
                 ; 0000 0480 CLEAR_SPI_buffer();
0008d8 dbb7      	RCALL _CLEAR_SPI_buffer
                 ; 0000 0481 delay_ms(500);
0008d9 940e 123c 	CALL SUBOPT_0x37
                 ; 0000 0482 LOAD_LD();
0008db 940e 021f 	CALL _LOAD_LD
                 ; 0000 0483 
                 ; 0000 0484 PCIFR|=0x01; //    
0008dd 9ad8      	SBI  0x1B,0
                 ; 0000 0485 PCICR=0x05;
0008de e0e5      	LDI  R30,LOW(5)
0008df 93e0 0068 	STS  104,R30
                 ; 0000 0486 }
0008e1 9119      	LD   R17,Y+
0008e2 940e 123f 	CALL SUBOPT_0x38
0008e4 9518      	RETI
                 
                 	.DSEG
                 _0x162:
000233           	.BYTE 0x16
                 ;//**************************************************************************************************************************************
                 ;
                 ;// Pin change 16-23 interrupt service routine
                 ;interrupt [PC_INT2] void pin_change_isr2(void)  //    
                 ; 0000 048B {
                 
                 	.CSEG
                 _pin_change_isr2:
0008e5 940e 11ed 	CALL SUBOPT_0x2D
                 ; 0000 048C 
                 ; 0000 048D PCICR=0x01;
0008e7 e0e1      	LDI  R30,LOW(1)
0008e8 93e0 0068 	STS  104,R30
                 ; 0000 048E 
                 ; 0000 048F    switch (PINC)
0008ea b1e6      	IN   R30,0x6
                 ; 0000 0490   {
                 ; 0000 0491 
                 ; 0000 0492    case 0xFE :{
0008eb 3fee      	CPI  R30,LOW(0xFE)
0008ec f011      	BREQ PC+3
0008ed 940c 09de 	JMP _0x18D
                 ; 0000 0493 
                 ; 0000 0494               delay_ms(1);
0008ef 940e 10ae 	CALL SUBOPT_0x6
                 ; 0000 0495      if(PINC==0xFE)
0008f1 b1e6      	IN   R30,0x6
0008f2 3fee      	CPI  R30,LOW(0xFE)
0008f3 f011      	BREQ PC+3
0008f4 940c 09dc 	JMP _0x18E
                 ; 0000 0496         {
                 ; 0000 0497 
                 ; 0000 0498            for(i=0;i<3000;i++)
0008f6 2455      	CLR  R5
0008f7 2466      	CLR  R6
                 _0x190:
0008f8 940e 124d 	CALL SUBOPT_0x39
0008fa f4c8      	BRSH _0x191
                 ; 0000 0499             {
                 ; 0000 049A             delay_ms(1);
0008fb 940e 10ae 	CALL SUBOPT_0x6
                 ; 0000 049B             if(PINC==0xFF)
0008fd b1e6      	IN   R30,0x6
0008fe 3fef      	CPI  R30,LOW(0xFF)
0008ff f489      	BRNE _0x192
                 ; 0000 049C               {
                 ; 0000 049D               if(LD1.Led.l1==0) LD1.Led.l1=1;
000900 940e 10a9 	CALL SUBOPT_0x5
000902 7ce0      	ANDI R30,LOW(0xC0)
000903 f429      	BRNE _0x193
000904 940e 10a9 	CALL SUBOPT_0x5
000906 73ef      	ANDI R30,LOW(0x3F)
000907 64e0      	ORI  R30,0x40
000908 c003      	RJMP _0x289
                 ; 0000 049E               else LD1.Led.l1=0;
                 _0x193:
000909 940e 10a9 	CALL SUBOPT_0x5
00090b 73ef      	ANDI R30,LOW(0x3F)
                 _0x289:
00090c 940e 12b6 	CALL __EEPROMWRB
                 ; 0000 049F               LOAD_LD();
00090e 940e 021f 	CALL _LOAD_LD
                 ; 0000 04A0               break;
000910 c003      	RJMP _0x191
                 ; 0000 04A1               }
                 ; 0000 04A2              }
                 _0x192:
000911 940e 109f 	CALL SUBOPT_0x3
000913 cfe4      	RJMP _0x190
                 _0x191:
                 ; 0000 04A3          if(PINC==0xFE) //  1
000914 b1e6      	IN   R30,0x6
000915 3fee      	CPI  R30,LOW(0xFE)
000916 f5c9      	BRNE _0x195
                 ; 0000 04A4           { PGM=1;
000917 e0e1      	LDI  R30,LOW(1)
000918 2e7e      	MOV  R7,R30
                 ; 0000 04A5            #asm("sei")
000919 9478      	sei
                 ; 0000 04A6            for(i=0;i<6;i++) DAT1[i]='F'; //  
00091a 2455      	CLR  R5
00091b 2466      	CLR  R6
                 _0x197:
00091c 940e 116e 	CALL SUBOPT_0x18
00091e f438      	BRSH _0x198
00091f e0a3      	LDI  R26,LOW(_DAT1)
000920 e0b0      	LDI  R27,HIGH(_DAT1)
000921 940e 1252 	CALL SUBOPT_0x3A
000923 940e 109f 	CALL SUBOPT_0x3
000925 cff6      	RJMP _0x197
                 _0x198:
                 ; 0000 04A7 for(j=0;j<60;j++)
000926 2488      	CLR  R8
                 _0x19A:
000927 e3ec      	LDI  R30,LOW(60)
000928 168e      	CP   R8,R30
000929 f528      	BRSH _0x19B
                 ; 0000 04A8             {
                 ; 0000 04A9             LD1.Led.l1=2;
00092a 940e 10a9 	CALL SUBOPT_0x5
00092c 940e 11d7 	CALL SUBOPT_0x28
                 ; 0000 04AA             LOAD_LD();
                 ; 0000 04AB             delay_ms(250);
00092e 940e 1258 	CALL SUBOPT_0x3B
                 ; 0000 04AC             LD1.Led.l1=1;
000930 940e 10a9 	CALL SUBOPT_0x5
000932 940e 11dd 	CALL SUBOPT_0x29
                 ; 0000 04AD             LOAD_LD();
000934 940e 125b 	CALL SUBOPT_0x3C
                 ; 0000 04AE             delay_ms(250);
                 ; 0000 04AF 
                 ; 0000 04B0             if(PGM==0xFF)
000936 efef      	LDI  R30,LOW(255)
000937 15e7      	CP   R30,R7
000938 f461      	BRNE _0x19C
                 ; 0000 04B1                {LD1.Led.l1=2;
000939 940e 10a9 	CALL SUBOPT_0x5
00093b 940e 11d7 	CALL SUBOPT_0x28
                 ; 0000 04B2                 LOAD_LD();
                 ; 0000 04B3                 delay_ms(2000);
00093d 940e 125e 	CALL SUBOPT_0x3D
                 ; 0000 04B4                 LD1.Led.l1=0;
00093f 940e 10a9 	CALL SUBOPT_0x5
000941 73ef      	ANDI R30,LOW(0x3F)
000942 940e 12b6 	CALL __EEPROMWRB
                 ; 0000 04B5                 break;
000944 c00a      	RJMP _0x19B
                 ; 0000 04B6                }
                 ; 0000 04B7             if(PGM==0xDF){LD1.Led.l1=1; break; }
                 _0x19C:
000945 edef      	LDI  R30,LOW(223)
000946 15e7      	CP   R30,R7
000947 f429      	BRNE _0x19D
000948 940e 10a9 	CALL SUBOPT_0x5
00094a 940e 11dd 	CALL SUBOPT_0x29
00094c c002      	RJMP _0x19B
                 ; 0000 04B8             }
                 _0x19D:
00094d 9483      	INC  R8
00094e cfd8      	RJMP _0x19A
                 _0x19B:
                 ; 0000 04B9             PGM=0;
00094f 2477      	CLR  R7
                 ; 0000 04BA            }
                 ; 0000 04BB          if(PINC==0x7E)  //  1
                 _0x195:
000950 b1e6      	IN   R30,0x6
000951 37ee      	CPI  R30,LOW(0x7E)
000952 f5e9      	BRNE _0x19E
                 ; 0000 04BC          {  PGM=11;
000953 e0eb      	LDI  R30,LOW(11)
000954 2e7e      	MOV  R7,R30
                 ; 0000 04BD            #asm("sei")
000955 9478      	sei
                 ; 0000 04BE            for(i=0;i<6;i++) BREL1[i]='F'; //  
000956 2455      	CLR  R5
000957 2466      	CLR  R6
                 _0x1A0:
000958 940e 116e 	CALL SUBOPT_0x18
00095a f438      	BRSH _0x1A1
00095b e3ab      	LDI  R26,LOW(_BREL1)
00095c e0b0      	LDI  R27,HIGH(_BREL1)
00095d 940e 1252 	CALL SUBOPT_0x3A
00095f 940e 109f 	CALL SUBOPT_0x3
000961 cff6      	RJMP _0x1A0
                 _0x1A1:
                 ; 0000 04BF for(j=0;j<60;j++)
000962 2488      	CLR  R8
                 _0x1A3:
000963 e3ec      	LDI  R30,LOW(60)
000964 168e      	CP   R8,R30
000965 f548      	BRSH _0x1A4
                 ; 0000 04C0             {
                 ; 0000 04C1             LD1.Led.l1=2;
000966 940e 10a9 	CALL SUBOPT_0x5
000968 940e 1261 	CALL SUBOPT_0x3E
                 ; 0000 04C2             LD3.Led.l2=2;
00096a 940e 1266 	CALL SUBOPT_0x3F
                 ; 0000 04C3             LOAD_LD();
                 ; 0000 04C4             delay_ms(250);
                 ; 0000 04C5             LD1.Led.l1=1;
00096c 940e 10a9 	CALL SUBOPT_0x5
00096e 940e 11dd 	CALL SUBOPT_0x29
                 ; 0000 04C6             LD3.Led.l2=1;
000970 940e 1081 	CALL SUBOPT_0x0
000972 940e 1211 	CALL SUBOPT_0x31
                 ; 0000 04C7             LOAD_LD();
                 ; 0000 04C8             delay_ms(250);
000974 940e 1258 	CALL SUBOPT_0x3B
                 ; 0000 04C9              if(PGM==0xFF)
000976 efef      	LDI  R30,LOW(255)
000977 15e7      	CP   R30,R7
000978 f461      	BRNE _0x1A5
                 ; 0000 04CA               {LD1.Led.l1=2;
000979 940e 10a9 	CALL SUBOPT_0x5
00097b 940e 11d7 	CALL SUBOPT_0x28
                 ; 0000 04CB                 LOAD_LD();
                 ; 0000 04CC                 delay_ms(2000);
00097d 940e 125e 	CALL SUBOPT_0x3D
                 ; 0000 04CD                 LD1.Led.l1=0;
00097f 940e 10a9 	CALL SUBOPT_0x5
000981 73ef      	ANDI R30,LOW(0x3F)
000982 940e 12b6 	CALL __EEPROMWRB
                 ; 0000 04CE                 break;
000984 c00a      	RJMP _0x1A4
                 ; 0000 04CF                }
                 ; 0000 04D0             if(PGM==0xDF){LD1.Led.l1=1; break; }
                 _0x1A5:
000985 edef      	LDI  R30,LOW(223)
000986 15e7      	CP   R30,R7
000987 f429      	BRNE _0x1A6
000988 940e 10a9 	CALL SUBOPT_0x5
00098a 940e 11dd 	CALL SUBOPT_0x29
00098c c002      	RJMP _0x1A4
                 ; 0000 04D1             }
                 _0x1A6:
00098d 9483      	INC  R8
00098e cfd4      	RJMP _0x1A3
                 _0x1A4:
                 ; 0000 04D2           PGM=0;
00098f 2477      	CLR  R7
                 ; 0000 04D3          }
                 ; 0000 04D4 
                 ; 0000 04D5          if(PINC==0xBE)  //  1
                 _0x19E:
000990 b1e6      	IN   R30,0x6
000991 3bee      	CPI  R30,LOW(0xBE)
000992 f011      	BREQ PC+3
000993 940c 09dc 	JMP _0x1A7
                 ; 0000 04D6          { #asm("sei")
000995 9478      	sei
                 ; 0000 04D7           SEND_Str("AT+CPBW=1\r");
                +
000996 e0ed     +LDI R30 , LOW ( 2 * _0x0 + ( 567 ) )
000997 e0f3     +LDI R31 , HIGH ( 2 * _0x0 + ( 567 ) )
                 	__POINTW1FN _0x0,567
000998 940e 11bd 	CALL SUBOPT_0x23
                 ; 0000 04D8           delay_ms(30);
00099a 940e 126b 	CALL SUBOPT_0x40
                 ; 0000 04D9           CLEAR_BUF();
00099c 940e 04cb 	CALL _CLEAR_BUF
                 ; 0000 04DA           for(j=0;j<60;j++)
00099e 2488      	CLR  R8
                 _0x1A9:
00099f e3ec      	LDI  R30,LOW(60)
0009a0 168e      	CP   R8,R30
0009a1 f5d0      	BRSH _0x1AA
                 ; 0000 04DB             {
                 ; 0000 04DC             LD1.Led.l1=2;
0009a2 940e 10a9 	CALL SUBOPT_0x5
0009a4 940e 1261 	CALL SUBOPT_0x3E
                 ; 0000 04DD             LD3.Led.l1=2;
0009a6 940e 11d7 	CALL SUBOPT_0x28
                 ; 0000 04DE             LOAD_LD();
                 ; 0000 04DF             delay_ms(250);
0009a8 940e 1258 	CALL SUBOPT_0x3B
                 ; 0000 04E0             LD1.Led.l1=1;
0009aa 940e 10a9 	CALL SUBOPT_0x5
0009ac 940e 11dd 	CALL SUBOPT_0x29
                 ; 0000 04E1             LD3.Led.l1=1;
0009ae 940e 1081 	CALL SUBOPT_0x0
0009b0 940e 11dd 	CALL SUBOPT_0x29
                 ; 0000 04E2             LOAD_LD();
0009b2 940e 125b 	CALL SUBOPT_0x3C
                 ; 0000 04E3             delay_ms(250);
                 ; 0000 04E4              if( strstr(rx_buffer0, "RING")!=NULL)
0009b4 940e 11c1 	CALL SUBOPT_0x24
                +
0009b6 e4e9     +LDI R30 , LOW ( _0x1AC + ( 0 ) )
0009b7 e0f2     +LDI R31 , HIGH ( _0x1AC + ( 0 ) )
                 	__POINTW1MN _0x1AC,0
0009b8 940e 11c6 	CALL SUBOPT_0x25
0009ba 9730      	SBIW R30,0
0009bb f0f1      	BREQ _0x1AB
                 ; 0000 04E5              {  delay_ms(300);
0009bc 940e 126e 	CALL SUBOPT_0x41
                 ; 0000 04E6               SEND_Str("ATH\r");
0009be 940e 1271 	CALL SUBOPT_0x42
                 ; 0000 04E7               delay_ms(2000);
0009c0 940e 125e 	CALL SUBOPT_0x3D
                 ; 0000 04E8              if( WRITE_NUMBER(1)==NULL)LD3.Led.l1=2;
0009c2 e0e1      	LDI  R30,LOW(1)
0009c3 940e 1274 	CALL SUBOPT_0x43
0009c5 f429      	BRNE _0x1AD
0009c6 940e 1081 	CALL SUBOPT_0x0
0009c8 73ef      	ANDI R30,LOW(0x3F)
0009c9 68e0      	ORI  R30,0x80
0009ca c004      	RJMP _0x28A
                 ; 0000 04E9              else LD3.Led.l1=1;
                 _0x1AD:
0009cb 940e 1081 	CALL SUBOPT_0x0
0009cd 73ef      	ANDI R30,LOW(0x3F)
0009ce 64e0      	ORI  R30,0x40
                 _0x28A:
0009cf 940e 12b6 	CALL __EEPROMWRB
                 ; 0000 04EA              LOAD_LD();
0009d1 940e 1279 	CALL SUBOPT_0x44
                 ; 0000 04EB               delay_ms(2000);
                 ; 0000 04EC               LD3.Led.l1=1;
0009d3 940e 1081 	CALL SUBOPT_0x0
0009d5 940e 11dd 	CALL SUBOPT_0x29
                 ; 0000 04ED              CLEAR_BUF();
0009d7 940e 04cb 	CALL _CLEAR_BUF
                 ; 0000 04EE                 break;
0009d9 c002      	RJMP _0x1AA
                 ; 0000 04EF                 }
                 ; 0000 04F0             }
                 _0x1AB:
0009da 9483      	INC  R8
0009db cfc3      	RJMP _0x1A9
                 _0x1AA:
                 ; 0000 04F1 
                 ; 0000 04F2          }
                 ; 0000 04F3               }
                 _0x1A7:
                 ; 0000 04F4 
                 ; 0000 04F5 				break;
                 _0x18E:
0009dc 940c 0f78 	JMP  _0x18C
                 ; 0000 04F6 			 }
                 ; 0000 04F7 
                 ; 0000 04F8 
                 ; 0000 04F9    case 0xFD :{
                 _0x18D:
0009de 3fed      	CPI  R30,LOW(0xFD)
0009df f011      	BREQ PC+3
0009e0 940c 0ad5 	JMP _0x1AF
                 ; 0000 04FA 
                 ; 0000 04FB               delay_ms(1);
0009e2 940e 10ae 	CALL SUBOPT_0x6
                 ; 0000 04FC      if(PINC==0xFD)
0009e4 b1e6      	IN   R30,0x6
0009e5 3fed      	CPI  R30,LOW(0xFD)
0009e6 f011      	BREQ PC+3
0009e7 940c 0ad3 	JMP _0x1B0
                 ; 0000 04FD         { for(i=0;i<3000;i++)
0009e9 2455      	CLR  R5
0009ea 2466      	CLR  R6
                 _0x1B2:
0009eb 940e 124d 	CALL SUBOPT_0x39
0009ed f4c8      	BRSH _0x1B3
                 ; 0000 04FE             {
                 ; 0000 04FF             delay_ms(1);
0009ee 940e 10ae 	CALL SUBOPT_0x6
                 ; 0000 0500             if(PINC==0xFF)
0009f0 b1e6      	IN   R30,0x6
0009f1 3fef      	CPI  R30,LOW(0xFF)
0009f2 f489      	BRNE _0x1B4
                 ; 0000 0501               {
                 ; 0000 0502               if(LD1.Led.l2==0) LD1.Led.l2=1;
0009f3 940e 10a9 	CALL SUBOPT_0x5
0009f5 73e0      	ANDI R30,LOW(0x30)
0009f6 f429      	BRNE _0x1B5
0009f7 940e 10a9 	CALL SUBOPT_0x5
0009f9 7cef      	ANDI R30,LOW(0xCF)
0009fa 61e0      	ORI  R30,0x10
0009fb c003      	RJMP _0x28B
                 ; 0000 0503               else LD1.Led.l2=0;
                 _0x1B5:
0009fc 940e 10a9 	CALL SUBOPT_0x5
0009fe 7cef      	ANDI R30,LOW(0xCF)
                 _0x28B:
0009ff 940e 12b6 	CALL __EEPROMWRB
                 ; 0000 0504               LOAD_LD();
000a01 940e 021f 	CALL _LOAD_LD
                 ; 0000 0505               break;
000a03 c003      	RJMP _0x1B3
                 ; 0000 0506               }
                 ; 0000 0507              }
                 _0x1B4:
000a04 940e 109f 	CALL SUBOPT_0x3
000a06 cfe4      	RJMP _0x1B2
                 _0x1B3:
                 ; 0000 0508          if(PINC==0xFD)
000a07 b1e6      	IN   R30,0x6
000a08 3fed      	CPI  R30,LOW(0xFD)
000a09 f5b9      	BRNE _0x1B7
                 ; 0000 0509           { PGM=2;
000a0a e0e2      	LDI  R30,LOW(2)
000a0b 2e7e      	MOV  R7,R30
                 ; 0000 050A            #asm("sei")
000a0c 9478      	sei
                 ; 0000 050B            for(i=0;i<6;i++) DAT2[i]='F'; //  
000a0d 2455      	CLR  R5
000a0e 2466      	CLR  R6
                 _0x1B9:
000a0f 940e 116e 	CALL SUBOPT_0x18
000a11 f438      	BRSH _0x1BA
000a12 e0aa      	LDI  R26,LOW(_DAT2)
000a13 e0b0      	LDI  R27,HIGH(_DAT2)
000a14 940e 1252 	CALL SUBOPT_0x3A
000a16 940e 109f 	CALL SUBOPT_0x3
000a18 cff6      	RJMP _0x1B9
                 _0x1BA:
                 ; 0000 050C for(j=0;j<60;j++)
000a19 2488      	CLR  R8
                 _0x1BC:
000a1a e3ec      	LDI  R30,LOW(60)
000a1b 168e      	CP   R8,R30
000a1c f518      	BRSH _0x1BD
                 ; 0000 050D             {
                 ; 0000 050E             LD1.Led.l2=2;
000a1d 940e 10a9 	CALL SUBOPT_0x5
000a1f 940e 1266 	CALL SUBOPT_0x3F
                 ; 0000 050F             LOAD_LD();
                 ; 0000 0510             delay_ms(250);
                 ; 0000 0511             LD1.Led.l2=1;
000a21 940e 10a9 	CALL SUBOPT_0x5
000a23 940e 1211 	CALL SUBOPT_0x31
                 ; 0000 0512             LOAD_LD();
                 ; 0000 0513             delay_ms(250);
000a25 940e 1258 	CALL SUBOPT_0x3B
                 ; 0000 0514 
                 ; 0000 0515             if(PGM==0xFF)
000a27 efef      	LDI  R30,LOW(255)
000a28 15e7      	CP   R30,R7
000a29 f461      	BRNE _0x1BE
                 ; 0000 0516                {LD1.Led.l2=2;
000a2a 940e 10a9 	CALL SUBOPT_0x5
000a2c 940e 127c 	CALL SUBOPT_0x45
                 ; 0000 0517                 LOAD_LD();
000a2e 940e 1279 	CALL SUBOPT_0x44
                 ; 0000 0518                 delay_ms(2000);
                 ; 0000 0519                 LD1.Led.l2=0;
000a30 940e 10a9 	CALL SUBOPT_0x5
000a32 7cef      	ANDI R30,LOW(0xCF)
000a33 940e 12b6 	CALL __EEPROMWRB
                 ; 0000 051A                 break;
000a35 c00a      	RJMP _0x1BD
                 ; 0000 051B                }
                 ; 0000 051C             if(PGM==0xDF){LD1.Led.l2=1; break; }
                 _0x1BE:
000a36 edef      	LDI  R30,LOW(223)
000a37 15e7      	CP   R30,R7
000a38 f429      	BRNE _0x1BF
000a39 940e 10a9 	CALL SUBOPT_0x5
000a3b 940e 1281 	CALL SUBOPT_0x46
000a3d c002      	RJMP _0x1BD
                 ; 0000 051D             }
                 _0x1BF:
000a3e 9483      	INC  R8
000a3f cfda      	RJMP _0x1BC
                 _0x1BD:
                 ; 0000 051E             PGM=0;
000a40 2477      	CLR  R7
                 ; 0000 051F            }
                 ; 0000 0520 
                 ; 0000 0521           if(PINC==0x7D)  //  2
                 _0x1B7:
000a41 b1e6      	IN   R30,0x6
000a42 37ed      	CPI  R30,LOW(0x7D)
000a43 f011      	BREQ PC+3
000a44 940c 0a85 	JMP _0x1C0
                 ; 0000 0522          {  PGM=12;
000a46 e0ec      	LDI  R30,LOW(12)
000a47 2e7e      	MOV  R7,R30
                 ; 0000 0523            #asm("sei")
000a48 9478      	sei
                 ; 0000 0524            for(i=0;i<6;i++) BREL2[i]='F'; //  
000a49 2455      	CLR  R5
000a4a 2466      	CLR  R6
                 _0x1C2:
000a4b 940e 116e 	CALL SUBOPT_0x18
000a4d f438      	BRSH _0x1C3
000a4e e4a2      	LDI  R26,LOW(_BREL2)
000a4f e0b0      	LDI  R27,HIGH(_BREL2)
000a50 940e 1252 	CALL SUBOPT_0x3A
000a52 940e 109f 	CALL SUBOPT_0x3
000a54 cff6      	RJMP _0x1C2
                 _0x1C3:
                 ; 0000 0527 for(j=0;j<60;j++)
000a55 2488      	CLR  R8
                 _0x1C5:
000a56 e3ec      	LDI  R30,LOW(60)
000a57 168e      	CP   R8,R30
000a58 f558      	BRSH _0x1C6
                 ; 0000 0528             {
                 ; 0000 0529             LD1.Led.l2=2;
000a59 940e 10a9 	CALL SUBOPT_0x5
000a5b 940e 127c 	CALL SUBOPT_0x45
                 ; 0000 052A             LD3.Led.l2=2;
000a5d 940e 1081 	CALL SUBOPT_0x0
000a5f 940e 1266 	CALL SUBOPT_0x3F
                 ; 0000 052B             LOAD_LD();
                 ; 0000 052C             delay_ms(250);
                 ; 0000 052D             LD1.Led.l2=1;
000a61 940e 10a9 	CALL SUBOPT_0x5
000a63 940e 1281 	CALL SUBOPT_0x46
                 ; 0000 052E             LD3.Led.l2=1;
000a65 940e 1081 	CALL SUBOPT_0x0
000a67 940e 1211 	CALL SUBOPT_0x31
                 ; 0000 052F             LOAD_LD();
                 ; 0000 0530             delay_ms(250);
000a69 940e 1258 	CALL SUBOPT_0x3B
                 ; 0000 0531              if(PGM==0xFF)
000a6b efef      	LDI  R30,LOW(255)
000a6c 15e7      	CP   R30,R7
000a6d f461      	BRNE _0x1C7
                 ; 0000 0532                {LD1.Led.l2=2;
000a6e 940e 10a9 	CALL SUBOPT_0x5
000a70 940e 127c 	CALL SUBOPT_0x45
                 ; 0000 0533                 LOAD_LD();
000a72 940e 1279 	CALL SUBOPT_0x44
                 ; 0000 0534                 delay_ms(2000);
                 ; 0000 0535                 LD1.Led.l2=0;
000a74 940e 10a9 	CALL SUBOPT_0x5
000a76 7cef      	ANDI R30,LOW(0xCF)
000a77 940e 12b6 	CALL __EEPROMWRB
                 ; 0000 0536                 break;
000a79 c00a      	RJMP _0x1C6
                 ; 0000 0537                }
                 ; 0000 0538             if(PGM==0xDF){LD1.Led.l2=1; break; }
                 _0x1C7:
000a7a edef      	LDI  R30,LOW(223)
000a7b 15e7      	CP   R30,R7
000a7c f429      	BRNE _0x1C8
000a7d 940e 10a9 	CALL SUBOPT_0x5
000a7f 940e 1281 	CALL SUBOPT_0x46
000a81 c002      	RJMP _0x1C6
                 ; 0000 0539             }
                 _0x1C8:
000a82 9483      	INC  R8
000a83 cfd2      	RJMP _0x1C5
                 _0x1C6:
                 ; 0000 053A            PGM=0;
000a84 2477      	CLR  R7
                 ; 0000 053B          }
                 ; 0000 053C           if(PINC==0xBD)  //  2
                 _0x1C0:
000a85 b1e6      	IN   R30,0x6
000a86 3bed      	CPI  R30,LOW(0xBD)
000a87 f011      	BREQ PC+3
000a88 940c 0ad3 	JMP _0x1C9
                 ; 0000 053D          { #asm("sei")
000a8a 9478      	sei
                 ; 0000 053E          SEND_Str("AT+CPBW=2\r");
                +
000a8b e2e2     +LDI R30 , LOW ( 2 * _0x0 + ( 588 ) )
000a8c e0f3     +LDI R31 , HIGH ( 2 * _0x0 + ( 588 ) )
                 	__POINTW1FN _0x0,588
000a8d 940e 11bd 	CALL SUBOPT_0x23
                 ; 0000 053F           delay_ms(30);
000a8f 940e 126b 	CALL SUBOPT_0x40
                 ; 0000 0540           CLEAR_BUF();
000a91 940e 04cb 	CALL _CLEAR_BUF
                 ; 0000 0541           for(j=0;j<60;j++)
000a93 2488      	CLR  R8
                 _0x1CB:
000a94 e3ec      	LDI  R30,LOW(60)
000a95 168e      	CP   R8,R30
000a96 f5e0      	BRSH _0x1CC
                 ; 0000 0542             {
                 ; 0000 0543             LD1.Led.l2=2;
000a97 940e 10a9 	CALL SUBOPT_0x5
000a99 940e 127c 	CALL SUBOPT_0x45
                 ; 0000 0544             LD3.Led.l1=2;
000a9b 940e 1081 	CALL SUBOPT_0x0
000a9d 940e 11d7 	CALL SUBOPT_0x28
                 ; 0000 0545             LOAD_LD();
                 ; 0000 0546             delay_ms(250);
000a9f 940e 1258 	CALL SUBOPT_0x3B
                 ; 0000 0547             LD1.Led.l2=1;
000aa1 940e 10a9 	CALL SUBOPT_0x5
000aa3 940e 1281 	CALL SUBOPT_0x46
                 ; 0000 0548             LD3.Led.l1=1;
000aa5 940e 1081 	CALL SUBOPT_0x0
000aa7 940e 11dd 	CALL SUBOPT_0x29
                 ; 0000 0549             LOAD_LD();
000aa9 940e 125b 	CALL SUBOPT_0x3C
                 ; 0000 054A             delay_ms(250);
                 ; 0000 054B              if( strstr(rx_buffer0, "RING")!=NULL)
000aab 940e 11c1 	CALL SUBOPT_0x24
                +
000aad e4ee     +LDI R30 , LOW ( _0x1AC + ( 5 ) )
000aae e0f2     +LDI R31 , HIGH ( _0x1AC + ( 5 ) )
                 	__POINTW1MN _0x1AC,5
000aaf 940e 11c6 	CALL SUBOPT_0x25
000ab1 9730      	SBIW R30,0
000ab2 f0f1      	BREQ _0x1CD
                 ; 0000 054C              {  delay_ms(300);
000ab3 940e 126e 	CALL SUBOPT_0x41
                 ; 0000 054D               SEND_Str("ATH\r");
000ab5 940e 1271 	CALL SUBOPT_0x42
                 ; 0000 054E               delay_ms(2000);
000ab7 940e 125e 	CALL SUBOPT_0x3D
                 ; 0000 054F              if( WRITE_NUMBER(2)==NULL)LD3.Led.l1=2;
000ab9 e0e2      	LDI  R30,LOW(2)
000aba 940e 1274 	CALL SUBOPT_0x43
000abc f429      	BRNE _0x1CE
000abd 940e 1081 	CALL SUBOPT_0x0
000abf 73ef      	ANDI R30,LOW(0x3F)
000ac0 68e0      	ORI  R30,0x80
000ac1 c004      	RJMP _0x28C
                 ; 0000 0550              else LD3.Led.l1=1;
                 _0x1CE:
000ac2 940e 1081 	CALL SUBOPT_0x0
000ac4 73ef      	ANDI R30,LOW(0x3F)
000ac5 64e0      	ORI  R30,0x40
                 _0x28C:
000ac6 940e 12b6 	CALL __EEPROMWRB
                 ; 0000 0551              LOAD_LD();
000ac8 940e 1279 	CALL SUBOPT_0x44
                 ; 0000 0552               delay_ms(2000);
                 ; 0000 0553               LD3.Led.l1=1;
000aca 940e 1081 	CALL SUBOPT_0x0
000acc 940e 11dd 	CALL SUBOPT_0x29
                 ; 0000 0554              CLEAR_BUF();
000ace 940e 04cb 	CALL _CLEAR_BUF
                 ; 0000 0555                 break;
000ad0 c002      	RJMP _0x1CC
                 ; 0000 0556                 }
                 ; 0000 0557             }
                 _0x1CD:
000ad1 9483      	INC  R8
000ad2 cfc1      	RJMP _0x1CB
                 _0x1CC:
                 ; 0000 0558 
                 ; 0000 0559          }
                 ; 0000 055A 
                 ; 0000 055B               }
                 _0x1C9:
                 ; 0000 055C 
                 ; 0000 055D 				break;
                 _0x1B0:
000ad3 940c 0f78 	JMP  _0x18C
                 ; 0000 055E 			 }
                 ; 0000 055F 
                 ; 0000 0560    case 0xFB :{
                 _0x1AF:
000ad5 3feb      	CPI  R30,LOW(0xFB)
000ad6 f011      	BREQ PC+3
000ad7 940c 0bcd 	JMP _0x1D0
                 ; 0000 0561 
                 ; 0000 0562               delay_ms(1);
000ad9 940e 10ae 	CALL SUBOPT_0x6
                 ; 0000 0563      if(PINC==0xFB)
000adb b1e6      	IN   R30,0x6
000adc 3feb      	CPI  R30,LOW(0xFB)
000add f011      	BREQ PC+3
000ade 940c 0bcc 	JMP _0x1D1
                 ; 0000 0564         { for(i=0;i<3000;i++)
000ae0 2455      	CLR  R5
000ae1 2466      	CLR  R6
                 _0x1D3:
000ae2 940e 124d 	CALL SUBOPT_0x39
000ae4 f4c8      	BRSH _0x1D4
                 ; 0000 0565             {
                 ; 0000 0566             delay_ms(1);
000ae5 940e 10ae 	CALL SUBOPT_0x6
                 ; 0000 0567             if(PINC==0xFF)
000ae7 b1e6      	IN   R30,0x6
000ae8 3fef      	CPI  R30,LOW(0xFF)
000ae9 f489      	BRNE _0x1D5
                 ; 0000 0568               {
                 ; 0000 0569               if(LD1.Led.l3==0) LD1.Led.l3=1;
000aea 940e 10a9 	CALL SUBOPT_0x5
000aec 70ec      	ANDI R30,LOW(0xC)
000aed f429      	BRNE _0x1D6
000aee 940e 10a9 	CALL SUBOPT_0x5
000af0 7fe3      	ANDI R30,LOW(0xF3)
000af1 60e4      	ORI  R30,4
000af2 c003      	RJMP _0x28D
                 ; 0000 056A               else LD1.Led.l3=0;
                 _0x1D6:
000af3 940e 10a9 	CALL SUBOPT_0x5
000af5 7fe3      	ANDI R30,LOW(0xF3)
                 _0x28D:
000af6 940e 12b6 	CALL __EEPROMWRB
                 ; 0000 056B               LOAD_LD();
000af8 940e 021f 	CALL _LOAD_LD
                 ; 0000 056C               break;
000afa c003      	RJMP _0x1D4
                 ; 0000 056D               }
                 ; 0000 056E              }
                 _0x1D5:
000afb 940e 109f 	CALL SUBOPT_0x3
000afd cfe4      	RJMP _0x1D3
                 _0x1D4:
                 ; 0000 056F          if(PINC==0xFB)
000afe b1e6      	IN   R30,0x6
000aff 3feb      	CPI  R30,LOW(0xFB)
000b00 f5c9      	BRNE _0x1D8
                 ; 0000 0570           { PGM=3;
000b01 e0e3      	LDI  R30,LOW(3)
000b02 2e7e      	MOV  R7,R30
                 ; 0000 0571            #asm("sei")
000b03 9478      	sei
                 ; 0000 0572            for(i=0;i<6;i++) DAT3[i]='F'; //  
000b04 2455      	CLR  R5
000b05 2466      	CLR  R6
                 _0x1DA:
000b06 940e 116e 	CALL SUBOPT_0x18
000b08 f438      	BRSH _0x1DB
000b09 e1a1      	LDI  R26,LOW(_DAT3)
000b0a e0b0      	LDI  R27,HIGH(_DAT3)
000b0b 940e 1252 	CALL SUBOPT_0x3A
000b0d 940e 109f 	CALL SUBOPT_0x3
000b0f cff6      	RJMP _0x1DA
                 _0x1DB:
                 ; 0000 0573 for(j=0;j<60;j++)
000b10 2488      	CLR  R8
                 _0x1DD:
000b11 e3ec      	LDI  R30,LOW(60)
000b12 168e      	CP   R8,R30
000b13 f528      	BRSH _0x1DE
                 ; 0000 0574             {
                 ; 0000 0575             LD1.Led.l3=2;
000b14 940e 10a9 	CALL SUBOPT_0x5
000b16 940e 1286 	CALL SUBOPT_0x47
                 ; 0000 0576             LOAD_LD();
000b18 940e 125b 	CALL SUBOPT_0x3C
                 ; 0000 0577             delay_ms(250);
                 ; 0000 0578             LD1.Led.l3=1;
000b1a 940e 10a9 	CALL SUBOPT_0x5
000b1c 940e 1236 	CALL SUBOPT_0x36
                 ; 0000 0579             LOAD_LD();
                 ; 0000 057A             delay_ms(250);
000b1e 940e 1258 	CALL SUBOPT_0x3B
                 ; 0000 057B 
                 ; 0000 057C             if(PGM==0xFF)
000b20 efef      	LDI  R30,LOW(255)
000b21 15e7      	CP   R30,R7
000b22 f461      	BRNE _0x1DF
                 ; 0000 057D                {LD1.Led.l3=2;
000b23 940e 10a9 	CALL SUBOPT_0x5
000b25 940e 1286 	CALL SUBOPT_0x47
                 ; 0000 057E                 LOAD_LD();
000b27 940e 1279 	CALL SUBOPT_0x44
                 ; 0000 057F                 delay_ms(2000);
                 ; 0000 0580                 LD1.Led.l3=0;
000b29 940e 10a9 	CALL SUBOPT_0x5
000b2b 7fe3      	ANDI R30,LOW(0xF3)
000b2c 940e 12b6 	CALL __EEPROMWRB
                 ; 0000 0581                 break;
000b2e c00a      	RJMP _0x1DE
                 ; 0000 0582                }
                 ; 0000 0583             if(PGM==0xDF){LD1.Led.l1=1; break; }
                 _0x1DF:
000b2f edef      	LDI  R30,LOW(223)
000b30 15e7      	CP   R30,R7
000b31 f429      	BRNE _0x1E0
000b32 940e 10a9 	CALL SUBOPT_0x5
000b34 940e 11dd 	CALL SUBOPT_0x29
000b36 c002      	RJMP _0x1DE
                 ; 0000 0584             }
                 _0x1E0:
000b37 9483      	INC  R8
000b38 cfd8      	RJMP _0x1DD
                 _0x1DE:
                 ; 0000 0585             PGM=0;
000b39 2477      	CLR  R7
                 ; 0000 0586            }
                 ; 0000 0587 
                 ; 0000 0588            if(PINC==0x7B)  //  3
                 _0x1D8:
000b3a b1e6      	IN   R30,0x6
000b3b 37eb      	CPI  R30,LOW(0x7B)
000b3c f011      	BREQ PC+3
000b3d 940c 0b7e 	JMP _0x1E1
                 ; 0000 0589          {  PGM=13;
000b3f e0ed      	LDI  R30,LOW(13)
000b40 2e7e      	MOV  R7,R30
                 ; 0000 058A            #asm("sei")
000b41 9478      	sei
                 ; 0000 058B            for(i=0;i<6;i++) BREL3[i]='F'; //  
000b42 2455      	CLR  R5
000b43 2466      	CLR  R6
                 _0x1E3:
000b44 940e 116e 	CALL SUBOPT_0x18
000b46 f438      	BRSH _0x1E4
000b47 e4a9      	LDI  R26,LOW(_BREL3)
000b48 e0b0      	LDI  R27,HIGH(_BREL3)
000b49 940e 1252 	CALL SUBOPT_0x3A
000b4b 940e 109f 	CALL SUBOPT_0x3
000b4d cff6      	RJMP _0x1E3
                 _0x1E4:
                 ; 0000 058D for(j=0;j<60;j++)
000b4e 2488      	CLR  R8
                 _0x1E6:
000b4f e3ec      	LDI  R30,LOW(60)
000b50 168e      	CP   R8,R30
000b51 f558      	BRSH _0x1E7
                 ; 0000 058E             {
                 ; 0000 058F             LD1.Led.l3=2;
000b52 940e 10a9 	CALL SUBOPT_0x5
000b54 940e 1286 	CALL SUBOPT_0x47
                 ; 0000 0590             LD3.Led.l2=2;
000b56 940e 1081 	CALL SUBOPT_0x0
000b58 940e 1266 	CALL SUBOPT_0x3F
                 ; 0000 0591             LOAD_LD();
                 ; 0000 0592             delay_ms(250);
                 ; 0000 0593             LD1.Led.l3=1;
000b5a 940e 10a9 	CALL SUBOPT_0x5
000b5c 940e 128b 	CALL SUBOPT_0x48
                 ; 0000 0594             LD3.Led.l2=1;
000b5e 940e 1081 	CALL SUBOPT_0x0
000b60 940e 1211 	CALL SUBOPT_0x31
                 ; 0000 0595             LOAD_LD();
                 ; 0000 0596             delay_ms(250);
000b62 940e 1258 	CALL SUBOPT_0x3B
                 ; 0000 0597              if(PGM==0xFF)
000b64 efef      	LDI  R30,LOW(255)
000b65 15e7      	CP   R30,R7
000b66 f461      	BRNE _0x1E8
                 ; 0000 0598               {LD1.Led.l3=2;
000b67 940e 10a9 	CALL SUBOPT_0x5
000b69 940e 1286 	CALL SUBOPT_0x47
                 ; 0000 0599                 LOAD_LD();
000b6b 940e 1279 	CALL SUBOPT_0x44
                 ; 0000 059A                 delay_ms(2000);
                 ; 0000 059B                 LD1.Led.l3=0;
000b6d 940e 10a9 	CALL SUBOPT_0x5
000b6f 7fe3      	ANDI R30,LOW(0xF3)
000b70 940e 12b6 	CALL __EEPROMWRB
                 ; 0000 059C                 break;
000b72 c00a      	RJMP _0x1E7
                 ; 0000 059D                }
                 ; 0000 059E             if(PGM==0xDF){LD1.Led.l3=1; break; }
                 _0x1E8:
000b73 edef      	LDI  R30,LOW(223)
000b74 15e7      	CP   R30,R7
000b75 f429      	BRNE _0x1E9
000b76 940e 10a9 	CALL SUBOPT_0x5
000b78 940e 128b 	CALL SUBOPT_0x48
000b7a c002      	RJMP _0x1E7
                 ; 0000 059F             }
                 _0x1E9:
000b7b 9483      	INC  R8
000b7c cfd2      	RJMP _0x1E6
                 _0x1E7:
                 ; 0000 05A0           PGM=0;
000b7d 2477      	CLR  R7
                 ; 0000 05A1          }
                 ; 0000 05A2 
                 ; 0000 05A3           if(PINC==0xBB)  //  3
                 _0x1E1:
000b7e b1e6      	IN   R30,0x6
000b7f 3beb      	CPI  R30,LOW(0xBB)
000b80 f011      	BREQ PC+3
000b81 940c 0bcc 	JMP _0x1EA
                 ; 0000 05A4          { #asm("sei")
000b83 9478      	sei
                 ; 0000 05A5           SEND_Str("AT+CPBW=3\r");
                +
000b84 e2ed     +LDI R30 , LOW ( 2 * _0x0 + ( 599 ) )
000b85 e0f3     +LDI R31 , HIGH ( 2 * _0x0 + ( 599 ) )
                 	__POINTW1FN _0x0,599
000b86 940e 11bd 	CALL SUBOPT_0x23
                 ; 0000 05A6           delay_ms(30);
000b88 940e 126b 	CALL SUBOPT_0x40
                 ; 0000 05A7           CLEAR_BUF();
000b8a 940e 04cb 	CALL _CLEAR_BUF
                 ; 0000 05A8            for(j=0;j<60;j++)
000b8c 2488      	CLR  R8
                 _0x1EC:
000b8d e3ec      	LDI  R30,LOW(60)
000b8e 168e      	CP   R8,R30
000b8f f5e0      	BRSH _0x1ED
                 ; 0000 05A9             {
                 ; 0000 05AA             LD1.Led.l3=2;
000b90 940e 10a9 	CALL SUBOPT_0x5
000b92 940e 1286 	CALL SUBOPT_0x47
                 ; 0000 05AB             LD3.Led.l1=2;
000b94 940e 1081 	CALL SUBOPT_0x0
000b96 940e 11d7 	CALL SUBOPT_0x28
                 ; 0000 05AC             LOAD_LD();
                 ; 0000 05AD             delay_ms(250);
000b98 940e 1258 	CALL SUBOPT_0x3B
                 ; 0000 05AE             LD1.Led.l3=1;
000b9a 940e 10a9 	CALL SUBOPT_0x5
000b9c 940e 128b 	CALL SUBOPT_0x48
                 ; 0000 05AF             LD3.Led.l1=1;
000b9e 940e 1081 	CALL SUBOPT_0x0
000ba0 940e 11dd 	CALL SUBOPT_0x29
                 ; 0000 05B0             LOAD_LD();
000ba2 940e 125b 	CALL SUBOPT_0x3C
                 ; 0000 05B1             delay_ms(250);
                 ; 0000 05B2              if( strstr(rx_buffer0, "RING")!=NULL)
000ba4 940e 11c1 	CALL SUBOPT_0x24
                +
000ba6 e5e3     +LDI R30 , LOW ( _0x1AC + ( 10 ) )
000ba7 e0f2     +LDI R31 , HIGH ( _0x1AC + ( 10 ) )
                 	__POINTW1MN _0x1AC,10
000ba8 940e 11c6 	CALL SUBOPT_0x25
000baa 9730      	SBIW R30,0
000bab f0f1      	BREQ _0x1EE
                 ; 0000 05B3              {  delay_ms(300);
000bac 940e 126e 	CALL SUBOPT_0x41
                 ; 0000 05B4               SEND_Str("ATH\r");
000bae 940e 1271 	CALL SUBOPT_0x42
                 ; 0000 05B5               delay_ms(2000);
000bb0 940e 125e 	CALL SUBOPT_0x3D
                 ; 0000 05B6              if( WRITE_NUMBER(3)==NULL)LD3.Led.l1=2;
000bb2 e0e3      	LDI  R30,LOW(3)
000bb3 940e 1274 	CALL SUBOPT_0x43
000bb5 f429      	BRNE _0x1EF
000bb6 940e 1081 	CALL SUBOPT_0x0
000bb8 73ef      	ANDI R30,LOW(0x3F)
000bb9 68e0      	ORI  R30,0x80
000bba c004      	RJMP _0x28E
                 ; 0000 05B7              else LD3.Led.l1=1;
                 _0x1EF:
000bbb 940e 1081 	CALL SUBOPT_0x0
000bbd 73ef      	ANDI R30,LOW(0x3F)
000bbe 64e0      	ORI  R30,0x40
                 _0x28E:
000bbf 940e 12b6 	CALL __EEPROMWRB
                 ; 0000 05B8              LOAD_LD();
000bc1 940e 1279 	CALL SUBOPT_0x44
                 ; 0000 05B9               delay_ms(2000);
                 ; 0000 05BA               LD3.Led.l1=1;
000bc3 940e 1081 	CALL SUBOPT_0x0
000bc5 940e 11dd 	CALL SUBOPT_0x29
                 ; 0000 05BB               CLEAR_BUF();
000bc7 940e 04cb 	CALL _CLEAR_BUF
                 ; 0000 05BC                 break;
000bc9 c002      	RJMP _0x1ED
                 ; 0000 05BD                 }
                 ; 0000 05BE             }
                 _0x1EE:
000bca 9483      	INC  R8
000bcb cfc1      	RJMP _0x1EC
                 _0x1ED:
                 ; 0000 05BF 
                 ; 0000 05C0          }
                 ; 0000 05C1               }
                 _0x1EA:
                 ; 0000 05C2 
                 ; 0000 05C3 				break;
                 _0x1D1:
000bcc c3ab      	RJMP _0x18C
                 ; 0000 05C4 			 }
                 ; 0000 05C5 
                 ; 0000 05C6    case 0xF7 :{
                 _0x1D0:
000bcd 3fe7      	CPI  R30,LOW(0xF7)
000bce f011      	BREQ PC+3
000bcf 940c 0cc5 	JMP _0x1F1
                 ; 0000 05C7 
                 ; 0000 05C8               delay_ms(1);
000bd1 940e 10ae 	CALL SUBOPT_0x6
                 ; 0000 05C9      if(PINC==0xF7)
000bd3 b1e6      	IN   R30,0x6
000bd4 3fe7      	CPI  R30,LOW(0xF7)
000bd5 f011      	BREQ PC+3
000bd6 940c 0cc4 	JMP _0x1F2
                 ; 0000 05CA         { for(i=0;i<3000;i++)
000bd8 2455      	CLR  R5
000bd9 2466      	CLR  R6
                 _0x1F4:
000bda 940e 124d 	CALL SUBOPT_0x39
000bdc f4c8      	BRSH _0x1F5
                 ; 0000 05CB             {
                 ; 0000 05CC             delay_ms(1);
000bdd 940e 10ae 	CALL SUBOPT_0x6
                 ; 0000 05CD             if(PINC==0xFF)
000bdf b1e6      	IN   R30,0x6
000be0 3fef      	CPI  R30,LOW(0xFF)
000be1 f489      	BRNE _0x1F6
                 ; 0000 05CE               {
                 ; 0000 05CF               if(LD1.Led.l4==0) LD1.Led.l4=1;
000be2 940e 10a9 	CALL SUBOPT_0x5
000be4 70e3      	ANDI R30,LOW(0x3)
000be5 f429      	BRNE _0x1F7
000be6 940e 10a9 	CALL SUBOPT_0x5
000be8 7fec      	ANDI R30,LOW(0xFC)
000be9 60e1      	ORI  R30,1
000bea c003      	RJMP _0x28F
                 ; 0000 05D0               else LD1.Led.l4=0;
                 _0x1F7:
000beb 940e 10a9 	CALL SUBOPT_0x5
000bed 7fec      	ANDI R30,LOW(0xFC)
                 _0x28F:
000bee 940e 12b6 	CALL __EEPROMWRB
                 ; 0000 05D1               LOAD_LD();
000bf0 940e 021f 	CALL _LOAD_LD
                 ; 0000 05D2               break;
000bf2 c003      	RJMP _0x1F5
                 ; 0000 05D3               }
                 ; 0000 05D4              }
                 _0x1F6:
000bf3 940e 109f 	CALL SUBOPT_0x3
000bf5 cfe4      	RJMP _0x1F4
                 _0x1F5:
                 ; 0000 05D5          if(PINC==0xF7)
000bf6 b1e6      	IN   R30,0x6
000bf7 3fe7      	CPI  R30,LOW(0xF7)
000bf8 f5c9      	BRNE _0x1F9
                 ; 0000 05D6           { PGM=4;
000bf9 e0e4      	LDI  R30,LOW(4)
000bfa 2e7e      	MOV  R7,R30
                 ; 0000 05D7            #asm("sei")
000bfb 9478      	sei
                 ; 0000 05D8            for(i=0;i<6;i++) DAT4[i]='F'; //  
000bfc 2455      	CLR  R5
000bfd 2466      	CLR  R6
                 _0x1FB:
000bfe 940e 116e 	CALL SUBOPT_0x18
000c00 f438      	BRSH _0x1FC
000c01 e1a8      	LDI  R26,LOW(_DAT4)
000c02 e0b0      	LDI  R27,HIGH(_DAT4)
000c03 940e 1252 	CALL SUBOPT_0x3A
000c05 940e 109f 	CALL SUBOPT_0x3
000c07 cff6      	RJMP _0x1FB
                 _0x1FC:
                 ; 0000 05D9 for(j=0;j<60;j++)
000c08 2488      	CLR  R8
                 _0x1FE:
000c09 e3ec      	LDI  R30,LOW(60)
000c0a 168e      	CP   R8,R30
000c0b f528      	BRSH _0x1FF
                 ; 0000 05DA             {
                 ; 0000 05DB             LD1.Led.l4=2;
000c0c 940e 10a9 	CALL SUBOPT_0x5
000c0e 940e 1290 	CALL SUBOPT_0x49
                 ; 0000 05DC             LOAD_LD();
000c10 940e 125b 	CALL SUBOPT_0x3C
                 ; 0000 05DD             delay_ms(250);
                 ; 0000 05DE             LD1.Led.l4=1;
000c12 940e 10a9 	CALL SUBOPT_0x5
000c14 940e 1230 	CALL SUBOPT_0x35
                 ; 0000 05DF             LOAD_LD();
                 ; 0000 05E0             delay_ms(250);
000c16 940e 1258 	CALL SUBOPT_0x3B
                 ; 0000 05E1 
                 ; 0000 05E2             if(PGM==0xFF)
000c18 efef      	LDI  R30,LOW(255)
000c19 15e7      	CP   R30,R7
000c1a f461      	BRNE _0x200
                 ; 0000 05E3                {LD1.Led.l4=2;
000c1b 940e 10a9 	CALL SUBOPT_0x5
000c1d 940e 1290 	CALL SUBOPT_0x49
                 ; 0000 05E4                 LOAD_LD();
000c1f 940e 1279 	CALL SUBOPT_0x44
                 ; 0000 05E5                 delay_ms(2000);
                 ; 0000 05E6                 LD1.Led.l4=0;
000c21 940e 10a9 	CALL SUBOPT_0x5
000c23 7fec      	ANDI R30,LOW(0xFC)
000c24 940e 12b6 	CALL __EEPROMWRB
                 ; 0000 05E7                 break;
000c26 c00a      	RJMP _0x1FF
                 ; 0000 05E8                }
                 ; 0000 05E9             if(PGM==0xDF){LD1.Led.l4=1; break; }
                 _0x200:
000c27 edef      	LDI  R30,LOW(223)
000c28 15e7      	CP   R30,R7
000c29 f429      	BRNE _0x201
000c2a 940e 10a9 	CALL SUBOPT_0x5
000c2c 940e 1295 	CALL SUBOPT_0x4A
000c2e c002      	RJMP _0x1FF
                 ; 0000 05EA             }
                 _0x201:
000c2f 9483      	INC  R8
000c30 cfd8      	RJMP _0x1FE
                 _0x1FF:
                 ; 0000 05EB             PGM=0;
000c31 2477      	CLR  R7
                 ; 0000 05EC            }
                 ; 0000 05ED           if(PINC==0x77)  //  4
                 _0x1F9:
000c32 b1e6      	IN   R30,0x6
000c33 37e7      	CPI  R30,LOW(0x77)
000c34 f011      	BREQ PC+3
000c35 940c 0c76 	JMP _0x202
                 ; 0000 05EE          {  PGM=14;
000c37 e0ee      	LDI  R30,LOW(14)
000c38 2e7e      	MOV  R7,R30
                 ; 0000 05EF            #asm("sei")
000c39 9478      	sei
                 ; 0000 05F0            for(i=0;i<6;i++) BREL4[i]='F'; //  
000c3a 2455      	CLR  R5
000c3b 2466      	CLR  R6
                 _0x204:
000c3c 940e 116e 	CALL SUBOPT_0x18
000c3e f438      	BRSH _0x205
000c3f e5a0      	LDI  R26,LOW(_BREL4)
000c40 e0b0      	LDI  R27,HIGH(_BREL4)
000c41 940e 1252 	CALL SUBOPT_0x3A
000c43 940e 109f 	CALL SUBOPT_0x3
000c45 cff6      	RJMP _0x204
                 _0x205:
                 ; 0000 05F1 for(j=0;j<60;j++)
000c46 2488      	CLR  R8
                 _0x207:
000c47 e3ec      	LDI  R30,LOW(60)
000c48 168e      	CP   R8,R30
000c49 f558      	BRSH _0x208
                 ; 0000 05F2             {
                 ; 0000 05F3             LD1.Led.l4=2;
000c4a 940e 10a9 	CALL SUBOPT_0x5
000c4c 940e 1290 	CALL SUBOPT_0x49
                 ; 0000 05F4             LD3.Led.l2=2;
000c4e 940e 1081 	CALL SUBOPT_0x0
000c50 940e 1266 	CALL SUBOPT_0x3F
                 ; 0000 05F5             LOAD_LD();
                 ; 0000 05F6             delay_ms(250);
                 ; 0000 05F7             LD1.Led.l4=1;
000c52 940e 10a9 	CALL SUBOPT_0x5
000c54 940e 1295 	CALL SUBOPT_0x4A
                 ; 0000 05F8             LD3.Led.l2=1;
000c56 940e 1081 	CALL SUBOPT_0x0
000c58 940e 1211 	CALL SUBOPT_0x31
                 ; 0000 05F9             LOAD_LD();
                 ; 0000 05FA             delay_ms(250);
000c5a 940e 1258 	CALL SUBOPT_0x3B
                 ; 0000 05FB              if(PGM==0xFF)
000c5c efef      	LDI  R30,LOW(255)
000c5d 15e7      	CP   R30,R7
000c5e f461      	BRNE _0x209
                 ; 0000 05FC               {LD1.Led.l4=2;
000c5f 940e 10a9 	CALL SUBOPT_0x5
000c61 940e 1290 	CALL SUBOPT_0x49
                 ; 0000 05FD                 LOAD_LD();
000c63 940e 1279 	CALL SUBOPT_0x44
                 ; 0000 05FE                 delay_ms(2000);
                 ; 0000 05FF                 LD1.Led.l4=0;
000c65 940e 10a9 	CALL SUBOPT_0x5
000c67 7fec      	ANDI R30,LOW(0xFC)
000c68 940e 12b6 	CALL __EEPROMWRB
                 ; 0000 0600                 break;
000c6a c00a      	RJMP _0x208
                 ; 0000 0601                }
                 ; 0000 0602             if(PGM==0xDF){LD1.Led.l4=1; break; }
                 _0x209:
000c6b edef      	LDI  R30,LOW(223)
000c6c 15e7      	CP   R30,R7
000c6d f429      	BRNE _0x20A
000c6e 940e 10a9 	CALL SUBOPT_0x5
000c70 940e 1295 	CALL SUBOPT_0x4A
000c72 c002      	RJMP _0x208
                 ; 0000 0603             }
                 _0x20A:
000c73 9483      	INC  R8
000c74 cfd2      	RJMP _0x207
                 _0x208:
                 ; 0000 0604            PGM=0;
000c75 2477      	CLR  R7
                 ; 0000 0605          }
                 ; 0000 0606           if(PINC==0xB7)  //  4
                 _0x202:
000c76 b1e6      	IN   R30,0x6
000c77 3be7      	CPI  R30,LOW(0xB7)
000c78 f011      	BREQ PC+3
000c79 940c 0cc4 	JMP _0x20B
                 ; 0000 0607          { #asm("sei")
000c7b 9478      	sei
                 ; 0000 0608           SEND_Str("AT+CPBW=4\r");
                +
000c7c e3e8     +LDI R30 , LOW ( 2 * _0x0 + ( 610 ) )
000c7d e0f3     +LDI R31 , HIGH ( 2 * _0x0 + ( 610 ) )
                 	__POINTW1FN _0x0,610
000c7e 940e 11bd 	CALL SUBOPT_0x23
                 ; 0000 0609           delay_ms(30);
000c80 940e 126b 	CALL SUBOPT_0x40
                 ; 0000 060A           CLEAR_BUF();
000c82 940e 04cb 	CALL _CLEAR_BUF
                 ; 0000 060B           for(j=0;j<60;j++)
000c84 2488      	CLR  R8
                 _0x20D:
000c85 e3ec      	LDI  R30,LOW(60)
000c86 168e      	CP   R8,R30
000c87 f5e0      	BRSH _0x20E
                 ; 0000 060C             {
                 ; 0000 060D             LD1.Led.l4=2;
000c88 940e 10a9 	CALL SUBOPT_0x5
000c8a 940e 1290 	CALL SUBOPT_0x49
                 ; 0000 060E             LD3.Led.l1=2;
000c8c 940e 1081 	CALL SUBOPT_0x0
000c8e 940e 11d7 	CALL SUBOPT_0x28
                 ; 0000 060F             LOAD_LD();
                 ; 0000 0610             delay_ms(250);
000c90 940e 1258 	CALL SUBOPT_0x3B
                 ; 0000 0611             LD1.Led.l4=1;
000c92 940e 10a9 	CALL SUBOPT_0x5
000c94 940e 1295 	CALL SUBOPT_0x4A
                 ; 0000 0612             LD3.Led.l1=1;
000c96 940e 1081 	CALL SUBOPT_0x0
000c98 940e 11dd 	CALL SUBOPT_0x29
                 ; 0000 0613             LOAD_LD();
000c9a 940e 125b 	CALL SUBOPT_0x3C
                 ; 0000 0614             delay_ms(250);
                 ; 0000 0615              if( strstr(rx_buffer0, "RING")!=NULL)
000c9c 940e 11c1 	CALL SUBOPT_0x24
                +
000c9e e5e8     +LDI R30 , LOW ( _0x1AC + ( 15 ) )
000c9f e0f2     +LDI R31 , HIGH ( _0x1AC + ( 15 ) )
                 	__POINTW1MN _0x1AC,15
000ca0 940e 11c6 	CALL SUBOPT_0x25
000ca2 9730      	SBIW R30,0
000ca3 f0f1      	BREQ _0x20F
                 ; 0000 0616              {  delay_ms(300);
000ca4 940e 126e 	CALL SUBOPT_0x41
                 ; 0000 0617               SEND_Str("ATH\r");
000ca6 940e 1271 	CALL SUBOPT_0x42
                 ; 0000 0618               delay_ms(2000);
000ca8 940e 125e 	CALL SUBOPT_0x3D
                 ; 0000 0619              if( WRITE_NUMBER(4)==NULL)LD3.Led.l1=2;
000caa e0e4      	LDI  R30,LOW(4)
000cab 940e 1274 	CALL SUBOPT_0x43
000cad f429      	BRNE _0x210
000cae 940e 1081 	CALL SUBOPT_0x0
000cb0 73ef      	ANDI R30,LOW(0x3F)
000cb1 68e0      	ORI  R30,0x80
000cb2 c004      	RJMP _0x290
                 ; 0000 061A              else LD3.Led.l1=1;
                 _0x210:
000cb3 940e 1081 	CALL SUBOPT_0x0
000cb5 73ef      	ANDI R30,LOW(0x3F)
000cb6 64e0      	ORI  R30,0x40
                 _0x290:
000cb7 940e 12b6 	CALL __EEPROMWRB
                 ; 0000 061B              LOAD_LD();
000cb9 940e 1279 	CALL SUBOPT_0x44
                 ; 0000 061C               delay_ms(2000);
                 ; 0000 061D               LD3.Led.l1=1;
000cbb 940e 1081 	CALL SUBOPT_0x0
000cbd 940e 11dd 	CALL SUBOPT_0x29
                 ; 0000 061E              CLEAR_BUF();
000cbf 940e 04cb 	CALL _CLEAR_BUF
                 ; 0000 061F                 break;
000cc1 c002      	RJMP _0x20E
                 ; 0000 0620                 }
                 ; 0000 0621             }
                 _0x20F:
000cc2 9483      	INC  R8
000cc3 cfc1      	RJMP _0x20D
                 _0x20E:
                 ; 0000 0622 
                 ; 0000 0623          }
                 ; 0000 0624               }
                 _0x20B:
                 ; 0000 0625 
                 ; 0000 0626 				break;
                 _0x1F2:
000cc4 c2b3      	RJMP _0x18C
                 ; 0000 0627 			 }
                 ; 0000 0628 
                 ; 0000 0629    case 0xEF :{
                 _0x1F1:
000cc5 3eef      	CPI  R30,LOW(0xEF)
000cc6 f011      	BREQ PC+3
000cc7 940c 0db7 	JMP _0x212
                 ; 0000 062A 
                 ; 0000 062B               delay_ms(1);
000cc9 940e 10ae 	CALL SUBOPT_0x6
                 ; 0000 062C      if(PINC==0xEF)
000ccb b1e6      	IN   R30,0x6
000ccc 3eef      	CPI  R30,LOW(0xEF)
000ccd f011      	BREQ PC+3
000cce 940c 0db6 	JMP _0x213
                 ; 0000 062D         { for(i=0;i<3000;i++)
000cd0 2455      	CLR  R5
000cd1 2466      	CLR  R6
                 _0x215:
000cd2 940e 124d 	CALL SUBOPT_0x39
000cd4 f4c8      	BRSH _0x216
                 ; 0000 062E             {
                 ; 0000 062F             delay_ms(1);
000cd5 940e 10ae 	CALL SUBOPT_0x6
                 ; 0000 0630             if(PINC==0xFF)
000cd7 b1e6      	IN   R30,0x6
000cd8 3fef      	CPI  R30,LOW(0xFF)
000cd9 f489      	BRNE _0x217
                 ; 0000 0631               {
                 ; 0000 0632               if(LD2.Led.l1==0) LD2.Led.l1=1;
000cda 940e 10a4 	CALL SUBOPT_0x4
000cdc 7ce0      	ANDI R30,LOW(0xC0)
000cdd f429      	BRNE _0x218
000cde 940e 10a4 	CALL SUBOPT_0x4
000ce0 73ef      	ANDI R30,LOW(0x3F)
000ce1 64e0      	ORI  R30,0x40
000ce2 c003      	RJMP _0x291
                 ; 0000 0633               else LD2.Led.l1=0;
                 _0x218:
000ce3 940e 10a4 	CALL SUBOPT_0x4
000ce5 73ef      	ANDI R30,LOW(0x3F)
                 _0x291:
000ce6 940e 12b6 	CALL __EEPROMWRB
                 ; 0000 0634               LOAD_LD();
000ce8 940e 021f 	CALL _LOAD_LD
                 ; 0000 0635               break;
000cea c003      	RJMP _0x216
                 ; 0000 0636               }
                 ; 0000 0637              }
                 _0x217:
000ceb 940e 109f 	CALL SUBOPT_0x3
000ced cfe4      	RJMP _0x215
                 _0x216:
                 ; 0000 0638          if(PINC==0xEF)
000cee b1e6      	IN   R30,0x6
000cef 3eef      	CPI  R30,LOW(0xEF)
000cf0 f5c9      	BRNE _0x21A
                 ; 0000 0639           { PGM=5;
000cf1 e0e5      	LDI  R30,LOW(5)
000cf2 2e7e      	MOV  R7,R30
                 ; 0000 063A            #asm("sei")
000cf3 9478      	sei
                 ; 0000 063B            for(i=0;i<6;i++) DAT5[i]='F'; //  
000cf4 2455      	CLR  R5
000cf5 2466      	CLR  R6
                 _0x21C:
000cf6 940e 116e 	CALL SUBOPT_0x18
000cf8 f438      	BRSH _0x21D
000cf9 e1af      	LDI  R26,LOW(_DAT5)
000cfa e0b0      	LDI  R27,HIGH(_DAT5)
000cfb 940e 1252 	CALL SUBOPT_0x3A
000cfd 940e 109f 	CALL SUBOPT_0x3
000cff cff6      	RJMP _0x21C
                 _0x21D:
                 ; 0000 063C for(j=0;j<60;j++)
000d00 2488      	CLR  R8
                 _0x21F:
000d01 e3ec      	LDI  R30,LOW(60)
000d02 168e      	CP   R8,R30
000d03 f528      	BRSH _0x220
                 ; 0000 063D             {
                 ; 0000 063E             LD2.Led.l1=2;
000d04 940e 10a4 	CALL SUBOPT_0x4
000d06 940e 11d7 	CALL SUBOPT_0x28
                 ; 0000 063F             LOAD_LD();
                 ; 0000 0640             delay_ms(250);
000d08 940e 1258 	CALL SUBOPT_0x3B
                 ; 0000 0641             LD2.Led.l1=1;
000d0a 940e 10a4 	CALL SUBOPT_0x4
000d0c 940e 11dd 	CALL SUBOPT_0x29
                 ; 0000 0642             LOAD_LD();
000d0e 940e 125b 	CALL SUBOPT_0x3C
                 ; 0000 0643             delay_ms(250);
                 ; 0000 0644 
                 ; 0000 0645             if(PGM==0xFF)
000d10 efef      	LDI  R30,LOW(255)
000d11 15e7      	CP   R30,R7
000d12 f461      	BRNE _0x221
                 ; 0000 0646                {LD2.Led.l1=2;
000d13 940e 10a4 	CALL SUBOPT_0x4
000d15 940e 11d7 	CALL SUBOPT_0x28
                 ; 0000 0647                 LOAD_LD();
                 ; 0000 0648                 delay_ms(2000);
000d17 940e 125e 	CALL SUBOPT_0x3D
                 ; 0000 0649                 LD2.Led.l1=0;
000d19 940e 10a4 	CALL SUBOPT_0x4
000d1b 73ef      	ANDI R30,LOW(0x3F)
000d1c 940e 12b6 	CALL __EEPROMWRB
                 ; 0000 064A                 break;
000d1e c00a      	RJMP _0x220
                 ; 0000 064B                }
                 ; 0000 064C             if(PGM==0xDF){LD2.Led.l1=1; break; }
                 _0x221:
000d1f edef      	LDI  R30,LOW(223)
000d20 15e7      	CP   R30,R7
000d21 f429      	BRNE _0x222
000d22 940e 10a4 	CALL SUBOPT_0x4
000d24 940e 11dd 	CALL SUBOPT_0x29
000d26 c002      	RJMP _0x220
                 ; 0000 064D             }
                 _0x222:
000d27 9483      	INC  R8
000d28 cfd8      	RJMP _0x21F
                 _0x220:
                 ; 0000 064E             PGM=0;
000d29 2477      	CLR  R7
                 ; 0000 064F            }
                 ; 0000 0650 
                 ; 0000 0651           if(PINC==0x6F)  //  5
                 _0x21A:
000d2a b1e6      	IN   R30,0x6
000d2b 36ef      	CPI  R30,LOW(0x6F)
000d2c f5e9      	BRNE _0x223
                 ; 0000 0652          { PGM=15;
000d2d e0ef      	LDI  R30,LOW(15)
000d2e 2e7e      	MOV  R7,R30
                 ; 0000 0653            #asm("sei")
000d2f 9478      	sei
                 ; 0000 0654            for(i=0;i<6;i++) BREL5[i]='F'; //  
000d30 2455      	CLR  R5
000d31 2466      	CLR  R6
                 _0x225:
000d32 940e 116e 	CALL SUBOPT_0x18
000d34 f438      	BRSH _0x226
000d35 e5a7      	LDI  R26,LOW(_BREL5)
000d36 e0b0      	LDI  R27,HIGH(_BREL5)
000d37 940e 1252 	CALL SUBOPT_0x3A
000d39 940e 109f 	CALL SUBOPT_0x3
000d3b cff6      	RJMP _0x225
                 _0x226:
                 ; 0000 0655 for(j=0;j<60;j++)
000d3c 2488      	CLR  R8
                 _0x228:
000d3d e3ec      	LDI  R30,LOW(60)
000d3e 168e      	CP   R8,R30
000d3f f548      	BRSH _0x229
                 ; 0000 0656             {
                 ; 0000 0657             LD2.Led.l1=2;
000d40 940e 10a4 	CALL SUBOPT_0x4
000d42 940e 1261 	CALL SUBOPT_0x3E
                 ; 0000 0658             LD3.Led.l2=2;
000d44 940e 1266 	CALL SUBOPT_0x3F
                 ; 0000 0659             LOAD_LD();
                 ; 0000 065A             delay_ms(250);
                 ; 0000 065B             LD2.Led.l1=1;
000d46 940e 10a4 	CALL SUBOPT_0x4
000d48 940e 11dd 	CALL SUBOPT_0x29
                 ; 0000 065C             LD3.Led.l2=1;
000d4a 940e 1081 	CALL SUBOPT_0x0
000d4c 940e 1211 	CALL SUBOPT_0x31
                 ; 0000 065D             LOAD_LD();
                 ; 0000 065E             delay_ms(250);
000d4e 940e 1258 	CALL SUBOPT_0x3B
                 ; 0000 065F              if(PGM==0xFF)
000d50 efef      	LDI  R30,LOW(255)
000d51 15e7      	CP   R30,R7
000d52 f461      	BRNE _0x22A
                 ; 0000 0660               {LD2.Led.l1=2;
000d53 940e 10a4 	CALL SUBOPT_0x4
000d55 940e 11d7 	CALL SUBOPT_0x28
                 ; 0000 0661                 LOAD_LD();
                 ; 0000 0662                 delay_ms(2000);
000d57 940e 125e 	CALL SUBOPT_0x3D
                 ; 0000 0663                 LD2.Led.l1=0;
000d59 940e 10a4 	CALL SUBOPT_0x4
000d5b 73ef      	ANDI R30,LOW(0x3F)
000d5c 940e 12b6 	CALL __EEPROMWRB
                 ; 0000 0664                 break;
000d5e c00a      	RJMP _0x229
                 ; 0000 0665                }
                 ; 0000 0666             if(PGM==0xDF){LD2.Led.l1=1; break; }
                 _0x22A:
000d5f edef      	LDI  R30,LOW(223)
000d60 15e7      	CP   R30,R7
000d61 f429      	BRNE _0x22B
000d62 940e 10a4 	CALL SUBOPT_0x4
000d64 940e 11dd 	CALL SUBOPT_0x29
000d66 c002      	RJMP _0x229
                 ; 0000 0667             }
                 _0x22B:
000d67 9483      	INC  R8
000d68 cfd4      	RJMP _0x228
                 _0x229:
                 ; 0000 0668            PGM=0;
000d69 2477      	CLR  R7
                 ; 0000 0669          }
                 ; 0000 066A 
                 ; 0000 066B           if(PINC==0xAF)  //  5
                 _0x223:
000d6a b1e6      	IN   R30,0x6
000d6b 3aef      	CPI  R30,LOW(0xAF)
000d6c f011      	BREQ PC+3
000d6d 940c 0db6 	JMP _0x22C
                 ; 0000 066C          {#asm("sei")
000d6f 9478      	sei
                 ; 0000 066D           SEND_Str("AT+CPBW=5\r");
                +
000d70 e4e3     +LDI R30 , LOW ( 2 * _0x0 + ( 621 ) )
000d71 e0f3     +LDI R31 , HIGH ( 2 * _0x0 + ( 621 ) )
                 	__POINTW1FN _0x0,621
000d72 940e 11bd 	CALL SUBOPT_0x23
                 ; 0000 066E           delay_ms(30);
000d74 940e 126b 	CALL SUBOPT_0x40
                 ; 0000 066F           CLEAR_BUF();
000d76 940e 04cb 	CALL _CLEAR_BUF
                 ; 0000 0670           for(j=0;j<60;j++)
000d78 2488      	CLR  R8
                 _0x22E:
000d79 e3ec      	LDI  R30,LOW(60)
000d7a 168e      	CP   R8,R30
000d7b f5d0      	BRSH _0x22F
                 ; 0000 0671             {
                 ; 0000 0672             LD2.Led.l1=2;
000d7c 940e 10a4 	CALL SUBOPT_0x4
000d7e 940e 1261 	CALL SUBOPT_0x3E
                 ; 0000 0673             LD3.Led.l1=2;
000d80 940e 11d7 	CALL SUBOPT_0x28
                 ; 0000 0674             LOAD_LD();
                 ; 0000 0675             delay_ms(250);
000d82 940e 1258 	CALL SUBOPT_0x3B
                 ; 0000 0676             LD2.Led.l1=1;
000d84 940e 10a4 	CALL SUBOPT_0x4
000d86 940e 11dd 	CALL SUBOPT_0x29
                 ; 0000 0677             LD3.Led.l1=1;
000d88 940e 1081 	CALL SUBOPT_0x0
000d8a 940e 11dd 	CALL SUBOPT_0x29
                 ; 0000 0678             LOAD_LD();
000d8c 940e 125b 	CALL SUBOPT_0x3C
                 ; 0000 0679             delay_ms(250);
                 ; 0000 067A              if( strstr(rx_buffer0, "RING")!=NULL)
000d8e 940e 11c1 	CALL SUBOPT_0x24
                +
000d90 e5ed     +LDI R30 , LOW ( _0x1AC + ( 20 ) )
000d91 e0f2     +LDI R31 , HIGH ( _0x1AC + ( 20 ) )
                 	__POINTW1MN _0x1AC,20
000d92 940e 11c6 	CALL SUBOPT_0x25
000d94 9730      	SBIW R30,0
000d95 f0f1      	BREQ _0x230
                 ; 0000 067B              {  delay_ms(300);
000d96 940e 126e 	CALL SUBOPT_0x41
                 ; 0000 067C               SEND_Str("ATH\r");
000d98 940e 1271 	CALL SUBOPT_0x42
                 ; 0000 067D               delay_ms(2000);
000d9a 940e 125e 	CALL SUBOPT_0x3D
                 ; 0000 067E              if( WRITE_NUMBER(5)==NULL)LD3.Led.l1=2;
000d9c e0e5      	LDI  R30,LOW(5)
000d9d 940e 1274 	CALL SUBOPT_0x43
000d9f f429      	BRNE _0x231
000da0 940e 1081 	CALL SUBOPT_0x0
000da2 73ef      	ANDI R30,LOW(0x3F)
000da3 68e0      	ORI  R30,0x80
000da4 c004      	RJMP _0x292
                 ; 0000 067F              else LD3.Led.l1=1;
                 _0x231:
000da5 940e 1081 	CALL SUBOPT_0x0
000da7 73ef      	ANDI R30,LOW(0x3F)
000da8 64e0      	ORI  R30,0x40
                 _0x292:
000da9 940e 12b6 	CALL __EEPROMWRB
                 ; 0000 0680              LOAD_LD();
000dab 940e 1279 	CALL SUBOPT_0x44
                 ; 0000 0681               delay_ms(2000);
                 ; 0000 0682               LD3.Led.l1=1;
000dad 940e 1081 	CALL SUBOPT_0x0
000daf 940e 11dd 	CALL SUBOPT_0x29
                 ; 0000 0683              CLEAR_BUF();
000db1 940e 04cb 	CALL _CLEAR_BUF
                 ; 0000 0684                 break;
000db3 c002      	RJMP _0x22F
                 ; 0000 0685                 }
                 ; 0000 0686             }
                 _0x230:
000db4 9483      	INC  R8
000db5 cfc3      	RJMP _0x22E
                 _0x22F:
                 ; 0000 0687 
                 ; 0000 0688          }
                 ; 0000 0689               }
                 _0x22C:
                 ; 0000 068A 
                 ; 0000 068B 				break;
                 _0x213:
000db6 c1c1      	RJMP _0x18C
                 ; 0000 068C 			 }
                 ; 0000 068D 
                 ; 0000 068E    case 0xDF :{
                 _0x212:
000db7 3def      	CPI  R30,LOW(0xDF)
000db8 f011      	BREQ PC+3
000db9 940c 0ead 	JMP _0x233
                 ; 0000 068F 
                 ; 0000 0690               delay_ms(1);
000dbb 940e 10ae 	CALL SUBOPT_0x6
                 ; 0000 0691      if(PINC==0xDF)
000dbd b1e6      	IN   R30,0x6
000dbe 3def      	CPI  R30,LOW(0xDF)
000dbf f011      	BREQ PC+3
000dc0 940c 0eac 	JMP _0x234
                 ; 0000 0692         { for(i=0;i<3000;i++)
000dc2 2455      	CLR  R5
000dc3 2466      	CLR  R6
                 _0x236:
000dc4 940e 124d 	CALL SUBOPT_0x39
000dc6 f4c8      	BRSH _0x237
                 ; 0000 0693             {
                 ; 0000 0694             delay_ms(1);
000dc7 940e 10ae 	CALL SUBOPT_0x6
                 ; 0000 0695             if(PINC==0xFF)
000dc9 b1e6      	IN   R30,0x6
000dca 3fef      	CPI  R30,LOW(0xFF)
000dcb f489      	BRNE _0x238
                 ; 0000 0696               {
                 ; 0000 0697               if(LD2.Led.l2==0) LD2.Led.l2=1;
000dcc 940e 10a4 	CALL SUBOPT_0x4
000dce 73e0      	ANDI R30,LOW(0x30)
000dcf f429      	BRNE _0x239
000dd0 940e 10a4 	CALL SUBOPT_0x4
000dd2 7cef      	ANDI R30,LOW(0xCF)
000dd3 61e0      	ORI  R30,0x10
000dd4 c003      	RJMP _0x293
                 ; 0000 0698               else LD2.Led.l2=0;
                 _0x239:
000dd5 940e 10a4 	CALL SUBOPT_0x4
000dd7 7cef      	ANDI R30,LOW(0xCF)
                 _0x293:
000dd8 940e 12b6 	CALL __EEPROMWRB
                 ; 0000 0699               LOAD_LD();
000dda 940e 021f 	CALL _LOAD_LD
                 ; 0000 069A               break;
000ddc c003      	RJMP _0x237
                 ; 0000 069B               }
                 ; 0000 069C              }
                 _0x238:
000ddd 940e 109f 	CALL SUBOPT_0x3
000ddf cfe4      	RJMP _0x236
                 _0x237:
                 ; 0000 069D          if(PINC==0xDF)
000de0 b1e6      	IN   R30,0x6
000de1 3def      	CPI  R30,LOW(0xDF)
000de2 f5b9      	BRNE _0x23B
                 ; 0000 069E           { PGM=6;
000de3 e0e6      	LDI  R30,LOW(6)
000de4 2e7e      	MOV  R7,R30
                 ; 0000 069F            #asm("sei")
000de5 9478      	sei
                 ; 0000 06A0            for(i=0;i<6;i++) DAT6[i]='F'; //  
000de6 2455      	CLR  R5
000de7 2466      	CLR  R6
                 _0x23D:
000de8 940e 116e 	CALL SUBOPT_0x18
000dea f438      	BRSH _0x23E
000deb e2a6      	LDI  R26,LOW(_DAT6)
000dec e0b0      	LDI  R27,HIGH(_DAT6)
000ded 940e 1252 	CALL SUBOPT_0x3A
000def 940e 109f 	CALL SUBOPT_0x3
000df1 cff6      	RJMP _0x23D
                 _0x23E:
                 ; 0000 06A1 for(j=0;j<60;j++)
000df2 2488      	CLR  R8
                 _0x240:
000df3 e3ec      	LDI  R30,LOW(60)
000df4 168e      	CP   R8,R30
000df5 f518      	BRSH _0x241
                 ; 0000 06A2             {
                 ; 0000 06A3             LD2.Led.l2=2;
000df6 940e 10a4 	CALL SUBOPT_0x4
000df8 940e 1266 	CALL SUBOPT_0x3F
                 ; 0000 06A4             LOAD_LD();
                 ; 0000 06A5             delay_ms(250);
                 ; 0000 06A6             LD2.Led.l2=1;
000dfa 940e 10a4 	CALL SUBOPT_0x4
000dfc 940e 1211 	CALL SUBOPT_0x31
                 ; 0000 06A7             LOAD_LD();
                 ; 0000 06A8             delay_ms(250);
000dfe 940e 1258 	CALL SUBOPT_0x3B
                 ; 0000 06A9 
                 ; 0000 06AA             if(PGM==0xFF)
000e00 efef      	LDI  R30,LOW(255)
000e01 15e7      	CP   R30,R7
000e02 f461      	BRNE _0x242
                 ; 0000 06AB                {LD2.Led.l2=2;
000e03 940e 10a4 	CALL SUBOPT_0x4
000e05 940e 127c 	CALL SUBOPT_0x45
                 ; 0000 06AC                 LOAD_LD();
000e07 940e 1279 	CALL SUBOPT_0x44
                 ; 0000 06AD                 delay_ms(2000);
                 ; 0000 06AE                 LD2.Led.l2=0;
000e09 940e 10a4 	CALL SUBOPT_0x4
000e0b 7cef      	ANDI R30,LOW(0xCF)
000e0c 940e 12b6 	CALL __EEPROMWRB
                 ; 0000 06AF                 break;
000e0e c00a      	RJMP _0x241
                 ; 0000 06B0                }
                 ; 0000 06B1             if(PGM==0xDF){LD2.Led.l2=1; break; }
                 _0x242:
000e0f edef      	LDI  R30,LOW(223)
000e10 15e7      	CP   R30,R7
000e11 f429      	BRNE _0x243
000e12 940e 10a4 	CALL SUBOPT_0x4
000e14 940e 1281 	CALL SUBOPT_0x46
000e16 c002      	RJMP _0x241
                 ; 0000 06B2             }
                 _0x243:
000e17 9483      	INC  R8
000e18 cfda      	RJMP _0x240
                 _0x241:
                 ; 0000 06B3             PGM=0;
000e19 2477      	CLR  R7
                 ; 0000 06B4            }
                 ; 0000 06B5 
                 ; 0000 06B6          if(PINC==0x5F)  //  6
                 _0x23B:
000e1a b1e6      	IN   R30,0x6
000e1b 35ef      	CPI  R30,LOW(0x5F)
000e1c f011      	BREQ PC+3
000e1d 940c 0e5e 	JMP _0x244
                 ; 0000 06B7          { PGM=16;
000e1f e1e0      	LDI  R30,LOW(16)
000e20 2e7e      	MOV  R7,R30
                 ; 0000 06B8            #asm("sei")
000e21 9478      	sei
                 ; 0000 06B9            for(i=0;i<6;i++) BREL6[i]='F'; //  
000e22 2455      	CLR  R5
000e23 2466      	CLR  R6
                 _0x246:
000e24 940e 116e 	CALL SUBOPT_0x18
000e26 f438      	BRSH _0x247
000e27 e5ae      	LDI  R26,LOW(_BREL6)
000e28 e0b0      	LDI  R27,HIGH(_BREL6)
000e29 940e 1252 	CALL SUBOPT_0x3A
000e2b 940e 109f 	CALL SUBOPT_0x3
000e2d cff6      	RJMP _0x246
                 _0x247:
                 ; 0000 06BA for(j=0;j<60;j++)
000e2e 2488      	CLR  R8
                 _0x249:
000e2f e3ec      	LDI  R30,LOW(60)
000e30 168e      	CP   R8,R30
000e31 f558      	BRSH _0x24A
                 ; 0000 06BB             {
                 ; 0000 06BC             LD2.Led.l2=2;
000e32 940e 10a4 	CALL SUBOPT_0x4
000e34 940e 127c 	CALL SUBOPT_0x45
                 ; 0000 06BD             LD3.Led.l2=2;
000e36 940e 1081 	CALL SUBOPT_0x0
000e38 940e 1266 	CALL SUBOPT_0x3F
                 ; 0000 06BE             LOAD_LD();
                 ; 0000 06BF             delay_ms(250);
                 ; 0000 06C0             LD2.Led.l2=1;
000e3a 940e 10a4 	CALL SUBOPT_0x4
000e3c 940e 1281 	CALL SUBOPT_0x46
                 ; 0000 06C1             LD3.Led.l2=1;
000e3e 940e 1081 	CALL SUBOPT_0x0
000e40 940e 1211 	CALL SUBOPT_0x31
                 ; 0000 06C2             LOAD_LD();
                 ; 0000 06C3             delay_ms(250);
000e42 940e 1258 	CALL SUBOPT_0x3B
                 ; 0000 06C4              if(PGM==0xFF)
000e44 efef      	LDI  R30,LOW(255)
000e45 15e7      	CP   R30,R7
000e46 f461      	BRNE _0x24B
                 ; 0000 06C5               {LD2.Led.l2=2;
000e47 940e 10a4 	CALL SUBOPT_0x4
000e49 940e 127c 	CALL SUBOPT_0x45
                 ; 0000 06C6                 LOAD_LD();
000e4b 940e 1279 	CALL SUBOPT_0x44
                 ; 0000 06C7                 delay_ms(2000);
                 ; 0000 06C8                 LD2.Led.l2=0;
000e4d 940e 10a4 	CALL SUBOPT_0x4
000e4f 7cef      	ANDI R30,LOW(0xCF)
000e50 940e 12b6 	CALL __EEPROMWRB
                 ; 0000 06C9                 break;
000e52 c00a      	RJMP _0x24A
                 ; 0000 06CA                }
                 ; 0000 06CB             if(PGM==0xDF){LD2.Led.l2=1; break; }
                 _0x24B:
000e53 edef      	LDI  R30,LOW(223)
000e54 15e7      	CP   R30,R7
000e55 f429      	BRNE _0x24C
000e56 940e 10a4 	CALL SUBOPT_0x4
000e58 940e 1281 	CALL SUBOPT_0x46
000e5a c002      	RJMP _0x24A
                 ; 0000 06CC             }
                 _0x24C:
000e5b 9483      	INC  R8
000e5c cfd2      	RJMP _0x249
                 _0x24A:
                 ; 0000 06CD            PGM=0;
000e5d 2477      	CLR  R7
                 ; 0000 06CE          }
                 ; 0000 06CF           if(PINC==0x9F)  //  6
                 _0x244:
000e5e b1e6      	IN   R30,0x6
000e5f 39ef      	CPI  R30,LOW(0x9F)
000e60 f011      	BREQ PC+3
000e61 940c 0eac 	JMP _0x24D
                 ; 0000 06D0          { #asm("sei")
000e63 9478      	sei
                 ; 0000 06D1           SEND_Str("AT+CPBW=6\r");
                +
000e64 e4ee     +LDI R30 , LOW ( 2 * _0x0 + ( 632 ) )
000e65 e0f3     +LDI R31 , HIGH ( 2 * _0x0 + ( 632 ) )
                 	__POINTW1FN _0x0,632
000e66 940e 11bd 	CALL SUBOPT_0x23
                 ; 0000 06D2           delay_ms(30);
000e68 940e 126b 	CALL SUBOPT_0x40
                 ; 0000 06D3           CLEAR_BUF();
000e6a 940e 04cb 	CALL _CLEAR_BUF
                 ; 0000 06D4           for(j=0;j<60;j++)
000e6c 2488      	CLR  R8
                 _0x24F:
000e6d e3ec      	LDI  R30,LOW(60)
000e6e 168e      	CP   R8,R30
000e6f f5e0      	BRSH _0x250
                 ; 0000 06D5             {
                 ; 0000 06D6             LD2.Led.l2=2;
000e70 940e 10a4 	CALL SUBOPT_0x4
000e72 940e 127c 	CALL SUBOPT_0x45
                 ; 0000 06D7             LD3.Led.l1=2;
000e74 940e 1081 	CALL SUBOPT_0x0
000e76 940e 11d7 	CALL SUBOPT_0x28
                 ; 0000 06D8             LOAD_LD();
                 ; 0000 06D9             delay_ms(250);
000e78 940e 1258 	CALL SUBOPT_0x3B
                 ; 0000 06DA             LD2.Led.l2=1;
000e7a 940e 10a4 	CALL SUBOPT_0x4
000e7c 940e 1281 	CALL SUBOPT_0x46
                 ; 0000 06DB             LD3.Led.l1=1;
000e7e 940e 1081 	CALL SUBOPT_0x0
000e80 940e 11dd 	CALL SUBOPT_0x29
                 ; 0000 06DC             LOAD_LD();
000e82 940e 125b 	CALL SUBOPT_0x3C
                 ; 0000 06DD             delay_ms(250);
                 ; 0000 06DE              if( strstr(rx_buffer0, "RING")!=NULL)
000e84 940e 11c1 	CALL SUBOPT_0x24
                +
000e86 e6e2     +LDI R30 , LOW ( _0x1AC + ( 25 ) )
000e87 e0f2     +LDI R31 , HIGH ( _0x1AC + ( 25 ) )
                 	__POINTW1MN _0x1AC,25
000e88 940e 11c6 	CALL SUBOPT_0x25
000e8a 9730      	SBIW R30,0
000e8b f0f1      	BREQ _0x251
                 ; 0000 06DF              {  delay_ms(300);
000e8c 940e 126e 	CALL SUBOPT_0x41
                 ; 0000 06E0               SEND_Str("ATH\r");
000e8e 940e 1271 	CALL SUBOPT_0x42
                 ; 0000 06E1               delay_ms(2000);
000e90 940e 125e 	CALL SUBOPT_0x3D
                 ; 0000 06E2              if( WRITE_NUMBER(6)==NULL)LD3.Led.l1=2;
000e92 e0e6      	LDI  R30,LOW(6)
000e93 940e 1274 	CALL SUBOPT_0x43
000e95 f429      	BRNE _0x252
000e96 940e 1081 	CALL SUBOPT_0x0
000e98 73ef      	ANDI R30,LOW(0x3F)
000e99 68e0      	ORI  R30,0x80
000e9a c004      	RJMP _0x294
                 ; 0000 06E3              else LD3.Led.l1=1;
                 _0x252:
000e9b 940e 1081 	CALL SUBOPT_0x0
000e9d 73ef      	ANDI R30,LOW(0x3F)
000e9e 64e0      	ORI  R30,0x40
                 _0x294:
000e9f 940e 12b6 	CALL __EEPROMWRB
                 ; 0000 06E4              LOAD_LD();
000ea1 940e 1279 	CALL SUBOPT_0x44
                 ; 0000 06E5               delay_ms(2000);
                 ; 0000 06E6               LD3.Led.l1=1;
000ea3 940e 1081 	CALL SUBOPT_0x0
000ea5 940e 11dd 	CALL SUBOPT_0x29
                 ; 0000 06E7              CLEAR_BUF();
000ea7 940e 04cb 	CALL _CLEAR_BUF
                 ; 0000 06E8                 break;
000ea9 c002      	RJMP _0x250
                 ; 0000 06E9                 }
                 ; 0000 06EA             }
                 _0x251:
000eaa 9483      	INC  R8
000eab cfc1      	RJMP _0x24F
                 _0x250:
                 ; 0000 06EB 
                 ; 0000 06EC          }
                 ; 0000 06ED               }
                 _0x24D:
                 ; 0000 06EE 
                 ; 0000 06EF 				break;
                 _0x234:
000eac c0cb      	RJMP _0x18C
                 ; 0000 06F0 			 }
                 ; 0000 06F1 
                 ; 0000 06F2    case 0xBF :{
                 _0x233:
000ead 3bef      	CPI  R30,LOW(0xBF)
000eae f011      	BREQ PC+3
000eaf 940c 0f13 	JMP _0x254
                 ; 0000 06F3 
                 ; 0000 06F4               delay_ms(1);
000eb1 940e 10ae 	CALL SUBOPT_0x6
                 ; 0000 06F5      if(PINC==0xBF)
000eb3 b1e6      	IN   R30,0x6
000eb4 3bef      	CPI  R30,LOW(0xBF)
000eb5 f011      	BREQ PC+3
000eb6 940c 0f12 	JMP _0x255
                 ; 0000 06F6             { for(i=0;i<3000;i++)
000eb8 2455      	CLR  R5
000eb9 2466      	CLR  R6
                 _0x257:
000eba 940e 124d 	CALL SUBOPT_0x39
000ebc f4c8      	BRSH _0x258
                 ; 0000 06F7             {
                 ; 0000 06F8             delay_ms(1);
000ebd 940e 10ae 	CALL SUBOPT_0x6
                 ; 0000 06F9             if(PINC==0xFF)
000ebf b1e6      	IN   R30,0x6
000ec0 3fef      	CPI  R30,LOW(0xFF)
000ec1 f489      	BRNE _0x259
                 ; 0000 06FA               {
                 ; 0000 06FB               if(LD2.Led.l3==0) LD2.Led.l3=1;
000ec2 940e 10a4 	CALL SUBOPT_0x4
000ec4 70ec      	ANDI R30,LOW(0xC)
000ec5 f429      	BRNE _0x25A
000ec6 940e 10a4 	CALL SUBOPT_0x4
000ec8 7fe3      	ANDI R30,LOW(0xF3)
000ec9 60e4      	ORI  R30,4
000eca c003      	RJMP _0x295
                 ; 0000 06FC               else LD2.Led.l3=0;
                 _0x25A:
000ecb 940e 10a4 	CALL SUBOPT_0x4
000ecd 7fe3      	ANDI R30,LOW(0xF3)
                 _0x295:
000ece 940e 12b6 	CALL __EEPROMWRB
                 ; 0000 06FD               LOAD_LD();
000ed0 940e 021f 	CALL _LOAD_LD
                 ; 0000 06FE               break;
000ed2 c003      	RJMP _0x258
                 ; 0000 06FF               }
                 ; 0000 0700              }
                 _0x259:
000ed3 940e 109f 	CALL SUBOPT_0x3
000ed5 cfe4      	RJMP _0x257
                 _0x258:
                 ; 0000 0701          if(PINC==0xBF)
000ed6 b1e6      	IN   R30,0x6
000ed7 3bef      	CPI  R30,LOW(0xBF)
000ed8 f5c9      	BRNE _0x25C
                 ; 0000 0702           { PGM=7;
000ed9 e0e7      	LDI  R30,LOW(7)
000eda 2e7e      	MOV  R7,R30
                 ; 0000 0703            #asm("sei")
000edb 9478      	sei
                 ; 0000 0704            for(i=0;i<6;i++) DAT7[i]='F'; //  
000edc 2455      	CLR  R5
000edd 2466      	CLR  R6
                 _0x25E:
000ede 940e 116e 	CALL SUBOPT_0x18
000ee0 f438      	BRSH _0x25F
000ee1 e2ad      	LDI  R26,LOW(_DAT7)
000ee2 e0b0      	LDI  R27,HIGH(_DAT7)
000ee3 940e 1252 	CALL SUBOPT_0x3A
000ee5 940e 109f 	CALL SUBOPT_0x3
000ee7 cff6      	RJMP _0x25E
                 _0x25F:
                 ; 0000 0705 for(j=0;j<60;j++)
000ee8 2488      	CLR  R8
                 _0x261:
000ee9 e3ec      	LDI  R30,LOW(60)
000eea 168e      	CP   R8,R30
000eeb f528      	BRSH _0x262
                 ; 0000 0706             {
                 ; 0000 0707             LD2.Led.l3=2;
000eec 940e 10a4 	CALL SUBOPT_0x4
000eee 940e 1286 	CALL SUBOPT_0x47
                 ; 0000 0708             LOAD_LD();
000ef0 940e 125b 	CALL SUBOPT_0x3C
                 ; 0000 0709             delay_ms(250);
                 ; 0000 070A             LD2.Led.l3=1;
000ef2 940e 10a4 	CALL SUBOPT_0x4
000ef4 940e 1236 	CALL SUBOPT_0x36
                 ; 0000 070B             LOAD_LD();
                 ; 0000 070C             delay_ms(250);
000ef6 940e 1258 	CALL SUBOPT_0x3B
                 ; 0000 070D 
                 ; 0000 070E             if(PGM==0xFF)
000ef8 efef      	LDI  R30,LOW(255)
000ef9 15e7      	CP   R30,R7
000efa f461      	BRNE _0x263
                 ; 0000 070F                {LD2.Led.l3=2;
000efb 940e 10a4 	CALL SUBOPT_0x4
000efd 940e 1286 	CALL SUBOPT_0x47
                 ; 0000 0710                 LOAD_LD();
000eff 940e 1279 	CALL SUBOPT_0x44
                 ; 0000 0711                 delay_ms(2000);
                 ; 0000 0712                 LD2.Led.l3=0;
000f01 940e 10a4 	CALL SUBOPT_0x4
000f03 7fe3      	ANDI R30,LOW(0xF3)
000f04 940e 12b6 	CALL __EEPROMWRB
                 ; 0000 0713                 break;
000f06 c00a      	RJMP _0x262
                 ; 0000 0714                }
                 ; 0000 0715             if(PGM==0xDF){LD2.Led.l3=1; break; }
                 _0x263:
000f07 edef      	LDI  R30,LOW(223)
000f08 15e7      	CP   R30,R7
000f09 f429      	BRNE _0x264
000f0a 940e 10a4 	CALL SUBOPT_0x4
000f0c 940e 128b 	CALL SUBOPT_0x48
000f0e c002      	RJMP _0x262
                 ; 0000 0716             }
                 _0x264:
000f0f 9483      	INC  R8
000f10 cfd8      	RJMP _0x261
                 _0x262:
                 ; 0000 0717             PGM=0;
000f11 2477      	CLR  R7
                 ; 0000 0718            }
                 ; 0000 0719               }
                 _0x25C:
                 ; 0000 071A 
                 ; 0000 071B 				break;
                 _0x255:
000f12 c065      	RJMP _0x18C
                 ; 0000 071C 			 }
                 ; 0000 071D 
                 ; 0000 071E    case 0x7F :{
                 _0x254:
000f13 37ef      	CPI  R30,LOW(0x7F)
000f14 f011      	BREQ PC+3
000f15 940c 0f78 	JMP _0x18C
                 ; 0000 071F 
                 ; 0000 0720               delay_ms(1);
000f17 940e 10ae 	CALL SUBOPT_0x6
                 ; 0000 0721      if(PINC==0x7F)
000f19 b1e6      	IN   R30,0x6
000f1a 37ef      	CPI  R30,LOW(0x7F)
000f1b f011      	BREQ PC+3
000f1c 940c 0f78 	JMP _0x266
                 ; 0000 0722         { for(i=0;i<3000;i++)
000f1e 2455      	CLR  R5
000f1f 2466      	CLR  R6
                 _0x268:
000f20 940e 124d 	CALL SUBOPT_0x39
000f22 f4c8      	BRSH _0x269
                 ; 0000 0723             {
                 ; 0000 0724             delay_ms(1);
000f23 940e 10ae 	CALL SUBOPT_0x6
                 ; 0000 0725             if(PINC==0xFF)
000f25 b1e6      	IN   R30,0x6
000f26 3fef      	CPI  R30,LOW(0xFF)
000f27 f489      	BRNE _0x26A
                 ; 0000 0726               {
                 ; 0000 0727               if(LD2.Led.l4==0) LD2.Led.l4=1;
000f28 940e 10a4 	CALL SUBOPT_0x4
000f2a 70e3      	ANDI R30,LOW(0x3)
000f2b f429      	BRNE _0x26B
000f2c 940e 10a4 	CALL SUBOPT_0x4
000f2e 7fec      	ANDI R30,LOW(0xFC)
000f2f 60e1      	ORI  R30,1
000f30 c003      	RJMP _0x296
                 ; 0000 0728               else LD2.Led.l4=0;
                 _0x26B:
000f31 940e 10a4 	CALL SUBOPT_0x4
000f33 7fec      	ANDI R30,LOW(0xFC)
                 _0x296:
000f34 940e 12b6 	CALL __EEPROMWRB
                 ; 0000 0729               LOAD_LD();
000f36 940e 021f 	CALL _LOAD_LD
                 ; 0000 072A               break;
000f38 c003      	RJMP _0x269
                 ; 0000 072B               }
                 ; 0000 072C              }
                 _0x26A:
000f39 940e 109f 	CALL SUBOPT_0x3
000f3b cfe4      	RJMP _0x268
                 _0x269:
                 ; 0000 072D          if(PINC==0x7F)
000f3c b1e6      	IN   R30,0x6
000f3d 37ef      	CPI  R30,LOW(0x7F)
000f3e f5c9      	BRNE _0x26D
                 ; 0000 072E           { PGM=8;
000f3f e0e8      	LDI  R30,LOW(8)
000f40 2e7e      	MOV  R7,R30
                 ; 0000 072F            #asm("sei")
000f41 9478      	sei
                 ; 0000 0730            for(i=0;i<6;i++) DAT8[i]='F'; //  
000f42 2455      	CLR  R5
000f43 2466      	CLR  R6
                 _0x26F:
000f44 940e 116e 	CALL SUBOPT_0x18
000f46 f438      	BRSH _0x270
000f47 e3a4      	LDI  R26,LOW(_DAT8)
000f48 e0b0      	LDI  R27,HIGH(_DAT8)
000f49 940e 1252 	CALL SUBOPT_0x3A
000f4b 940e 109f 	CALL SUBOPT_0x3
000f4d cff6      	RJMP _0x26F
                 _0x270:
                 ; 0000 0731 for(j=0;j<60;j++)
000f4e 2488      	CLR  R8
                 _0x272:
000f4f e3ec      	LDI  R30,LOW(60)
000f50 168e      	CP   R8,R30
000f51 f528      	BRSH _0x273
                 ; 0000 0732             {
                 ; 0000 0733             LD2.Led.l4=2;
000f52 940e 10a4 	CALL SUBOPT_0x4
000f54 940e 1290 	CALL SUBOPT_0x49
                 ; 0000 0734             LOAD_LD();
000f56 940e 125b 	CALL SUBOPT_0x3C
                 ; 0000 0735             delay_ms(250);
                 ; 0000 0736             LD2.Led.l4=1;
000f58 940e 10a4 	CALL SUBOPT_0x4
000f5a 940e 1230 	CALL SUBOPT_0x35
                 ; 0000 0737             LOAD_LD();
                 ; 0000 0738             delay_ms(250);
000f5c 940e 1258 	CALL SUBOPT_0x3B
                 ; 0000 0739 
                 ; 0000 073A             if(PGM==0xFF)
000f5e efef      	LDI  R30,LOW(255)
000f5f 15e7      	CP   R30,R7
000f60 f461      	BRNE _0x274
                 ; 0000 073B                {LD2.Led.l4=2;
000f61 940e 10a4 	CALL SUBOPT_0x4
000f63 940e 1290 	CALL SUBOPT_0x49
                 ; 0000 073C                 LOAD_LD();
000f65 940e 1279 	CALL SUBOPT_0x44
                 ; 0000 073D                 delay_ms(2000);
                 ; 0000 073E                 LD2.Led.l4=0;
000f67 940e 10a4 	CALL SUBOPT_0x4
000f69 7fec      	ANDI R30,LOW(0xFC)
000f6a 940e 12b6 	CALL __EEPROMWRB
                 ; 0000 073F                 break;
000f6c c00a      	RJMP _0x273
                 ; 0000 0740                }
                 ; 0000 0741             if(PGM==0xDF){LD2.Led.l4=1; break; }
                 _0x274:
000f6d edef      	LDI  R30,LOW(223)
000f6e 15e7      	CP   R30,R7
000f6f f429      	BRNE _0x275
000f70 940e 10a4 	CALL SUBOPT_0x4
000f72 940e 1295 	CALL SUBOPT_0x4A
000f74 c002      	RJMP _0x273
                 ; 0000 0742             }
                 _0x275:
000f75 9483      	INC  R8
000f76 cfd8      	RJMP _0x272
                 _0x273:
                 ; 0000 0743             PGM=0;
000f77 2477      	CLR  R7
                 ; 0000 0744            }
                 ; 0000 0745               }
                 _0x26D:
                 ; 0000 0746 
                 ; 0000 0747 				break;
                 _0x266:
                 ; 0000 0748 			 }
                 ; 0000 0749 
                 ; 0000 074A 
                 ; 0000 074B   }
                 _0x18C:
                 ; 0000 074C 
                 ; 0000 074D   CLEAR_BUF();
000f78 940e 04cb 	CALL _CLEAR_BUF
                 ; 0000 074E     delay_ms(300);
000f7a 940e 126e 	CALL SUBOPT_0x41
                 ; 0000 074F   while(PINC!=0xFF);
                 _0x276:
000f7c b1e6      	IN   R30,0x6
000f7d 3fef      	CPI  R30,LOW(0xFF)
000f7e f7e9      	BRNE _0x276
                 ; 0000 0750   PCICR=0x05;
000f7f e0e5      	LDI  R30,LOW(5)
000f80 93e0 0068 	STS  104,R30
                 ; 0000 0751   PCIFR|=0x04;  //  
000f82 9ada      	SBI  0x1B,2
                 ; 0000 0752 
                 ; 0000 0753 
                 ; 0000 0754 }
000f83 940e 123f 	CALL SUBOPT_0x38
000f85 9518      	RETI
                 
                 	.DSEG
                 _0x1AC:
000249           	.BYTE 0x1E
                 ;
                 ;
                 ;
                 ;
                 ;
                 ;
                 ;//***************************************************************************************************************************************
                 ;// USART0 Receiver interrupt service routine
                 ;interrupt [USART0_RXC] void usart0_rx_isr(void)  //    USART
                 ; 0000 075E {
                 
                 	.CSEG
                 _usart0_rx_isr:
000f86 93ea      	ST   -Y,R30
000f87 93fa      	ST   -Y,R31
000f88 b7ef      	IN   R30,SREG
000f89 93ea      	ST   -Y,R30
                 ; 0000 075F char status,data;
                 ; 0000 0760 status=UCSR0A;
000f8a 931a      	ST   -Y,R17
000f8b 930a      	ST   -Y,R16
                 ;	status -> R17
                 ;	data -> R16
000f8c 9110 00c0 	LDS  R17,192
                 ; 0000 0761 data=UDR0;
000f8e 9100 00c6 	LDS  R16,198
                 ; 0000 0762 if ((status & (FRAMING_ERROR | PARITY_ERROR | DATA_OVERRUN))==0)
000f90 2fe1      	MOV  R30,R17
000f91 71ec      	ANDI R30,LOW(0x1C)
000f92 f449      	BRNE _0x279
                 ; 0000 0763    {
                 ; 0000 0764    rx_buffer0[rx_wr_index0++]=data;
                +
000f93 2de3     +MOV R30 , R3
000f94 2df4     +MOV R31 , R4
                 	__GETW1R 3,4
000f95 9631      	ADIW R30,1
                +
000f96 2e3e     +MOV R3 , R30
000f97 2e4f     +MOV R4 , R31
                 	__PUTW1R 3,4
000f98 9731      	SBIW R30,1
000f99 59e9      	SUBI R30,LOW(-_rx_buffer0)
000f9a 4ffd      	SBCI R31,HIGH(-_rx_buffer0)
000f9b 8300      	ST   Z,R16
                 ; 0000 0765 
                 ; 0000 0766 
                 ; 0000 0767    }
                 ; 0000 0768 }
                 _0x279:
000f9c 9109      	LD   R16,Y+
000f9d 9119      	LD   R17,Y+
000f9e 91e9      	LD   R30,Y+
000f9f bfef      	OUT  SREG,R30
000fa0 91f9      	LD   R31,Y+
000fa1 91e9      	LD   R30,Y+
000fa2 9518      	RETI
                 ;
                 ;//=====================================================================================================================================
                 ;
                 ;
                 ;
                 ;// Declare your global variables here
                 ;
                 ;void main(void)
                 ; 0000 0771 {
                 _main:
                 ; 0000 0772 // Declare your local variables here
                 ; 0000 0773 
                 ; 0000 0774 // Crystal Oscillator division factor: 1
                 ; 0000 0775 #pragma optsize-
                 ; 0000 0776 CLKPR=0x80;
000fa3 e8e0      	LDI  R30,LOW(128)
000fa4 93e0 0061 	STS  97,R30
                 ; 0000 0777 CLKPR=0x00;
000fa6 e0e0      	LDI  R30,LOW(0)
000fa7 93e0 0061 	STS  97,R30
                 ; 0000 0778 #ifdef _OPTIMIZE_SIZE_
                 ; 0000 0779 #pragma optsize+
                 ; 0000 077A #endif
                 ; 0000 077B 
                 ; 0000 077C // Input/Output Ports initialization
                 ; 0000 077D // Port A initialization
                 ; 0000 077E // Func7=In Func6=In Func5=Out Func4=Out Func3=Out Func2=Out Func1=In Func0=In
                 ; 0000 077F // State7=T State6=T State5=1 State4=0 State3=0 State2=0 State1=T State0=T
                 ; 0000 0780 PORTA=0x20;
000fa9 e2e0      	LDI  R30,LOW(32)
000faa b9e2      	OUT  0x2,R30
                 ; 0000 0781 DDRA=0x3C;
000fab e3ec      	LDI  R30,LOW(60)
000fac b9e1      	OUT  0x1,R30
                 ; 0000 0782 
                 ; 0000 0783 // Port B initialization
                 ; 0000 0784 // Func7=Out Func6=In Func5=Out Func4=Out Func3=Out Func2=Out Func1=In Func0=Out
                 ; 0000 0785 // State7=0 State6=T State5=0 State4=1 State3=0 State2=1 State1=T State0=1
                 ; 0000 0786 PORTB=0x15;
000fad e1e5      	LDI  R30,LOW(21)
000fae b9e5      	OUT  0x5,R30
                 ; 0000 0787 DDRB=0xBD;
000faf ebed      	LDI  R30,LOW(189)
000fb0 b9e4      	OUT  0x4,R30
                 ; 0000 0788 
                 ; 0000 0789 // Port C initialization
                 ; 0000 078A // Func7=In Func6=In Func5=In Func4=In Func3=In Func2=In Func1=In Func0=In
                 ; 0000 078B // State7=P State6=P State5=P State4=P State3=P State2=P State1=P State0=P
                 ; 0000 078C PORTC=0xFF;
000fb1 efef      	LDI  R30,LOW(255)
000fb2 b9e8      	OUT  0x8,R30
                 ; 0000 078D DDRC=0x00;
000fb3 e0e0      	LDI  R30,LOW(0)
000fb4 b9e7      	OUT  0x7,R30
                 ; 0000 078E 
                 ; 0000 078F // Port D initialization
                 ; 0000 0790 // Func7=In Func6=Out Func5=Out Func4=Out Func3=Out Func2=In Func1=Out Func0=In
                 ; 0000 0791 // State7=T State6=0 State5=0 State4=0 State3=0 State2=T State1=0 State0=T
                 ; 0000 0792 PORTD=0x00;
000fb5 b9eb      	OUT  0xB,R30
                 ; 0000 0793 DDRD=0x7A;
000fb6 e7ea      	LDI  R30,LOW(122)
000fb7 b9ea      	OUT  0xA,R30
                 ; 0000 0794 
                 ; 0000 0795 // Timer/Counter 0 initialization
                 ; 0000 0796 // Clock source: System Clock
                 ; 0000 0797 // Clock value: Timer 0 Stopped
                 ; 0000 0798 // Mode: Normal top=0xFF
                 ; 0000 0799 // OC0A output: Disconnected
                 ; 0000 079A // OC0B output: Disconnected
                 ; 0000 079B TCCR0A=0x00;
000fb8 e0e0      	LDI  R30,LOW(0)
000fb9 bde4      	OUT  0x24,R30
                 ; 0000 079C TCCR0B=0x00;
000fba bde5      	OUT  0x25,R30
                 ; 0000 079D TCNT0=0x00;
000fbb bde6      	OUT  0x26,R30
                 ; 0000 079E OCR0A=0x00;
000fbc bde7      	OUT  0x27,R30
                 ; 0000 079F OCR0B=0x00;
000fbd bde8      	OUT  0x28,R30
                 ; 0000 07A0 
                 ; 0000 07A1 // Timer/Counter 1 initialization
                 ; 0000 07A2 // Clock source: System Clock
                 ; 0000 07A3 // Clock value: Timer1 Stopped
                 ; 0000 07A4 // Mode: Normal top=0xFFFF
                 ; 0000 07A5 // OC1A output: Discon.
                 ; 0000 07A6 // OC1B output: Discon.
                 ; 0000 07A7 // Noise Canceler: Off
                 ; 0000 07A8 // Input Capture on Falling Edge
                 ; 0000 07A9 // Timer1 Overflow Interrupt: Off
                 ; 0000 07AA // Input Capture Interrupt: Off
                 ; 0000 07AB // Compare A Match Interrupt: Off
                 ; 0000 07AC // Compare B Match Interrupt: Off
                 ; 0000 07AD TCCR1A=0x00;
000fbe 93e0 0080 	STS  128,R30
                 ; 0000 07AE TCCR1B=0x00;
000fc0 93e0 0081 	STS  129,R30
                 ; 0000 07AF TCNT1H=0x00;
000fc2 93e0 0085 	STS  133,R30
                 ; 0000 07B0 TCNT1L=0x00;
000fc4 93e0 0084 	STS  132,R30
                 ; 0000 07B1 ICR1H=0x00;
000fc6 93e0 0087 	STS  135,R30
                 ; 0000 07B2 ICR1L=0x00;
000fc8 93e0 0086 	STS  134,R30
                 ; 0000 07B3 OCR1AH=0x00;
000fca 93e0 0089 	STS  137,R30
                 ; 0000 07B4 OCR1AL=0x00;
000fcc 93e0 0088 	STS  136,R30
                 ; 0000 07B5 OCR1BH=0x00;
000fce 93e0 008b 	STS  139,R30
                 ; 0000 07B6 OCR1BL=0x00;
000fd0 93e0 008a 	STS  138,R30
                 ; 0000 07B7 
                 ; 0000 07B8 // Timer/Counter 2 initialization
                 ; 0000 07B9 // Clock source: System Clock
                 ; 0000 07BA // Clock value: Timer2 Stopped
                 ; 0000 07BB // Mode: Normal top=0xFF
                 ; 0000 07BC // OC2A output: Disconnected
                 ; 0000 07BD // OC2B output: Disconnected
                 ; 0000 07BE ASSR=0x00;
000fd2 93e0 00b6 	STS  182,R30
                 ; 0000 07BF TCCR2A=0x00;
000fd4 93e0 00b0 	STS  176,R30
                 ; 0000 07C0 TCCR2B=0x00;
000fd6 93e0 00b1 	STS  177,R30
                 ; 0000 07C1 TCNT2=0x00;
000fd8 93e0 00b2 	STS  178,R30
                 ; 0000 07C2 OCR2A=0x00;
000fda 93e0 00b3 	STS  179,R30
                 ; 0000 07C3 OCR2B=0x00;
000fdc 93e0 00b4 	STS  180,R30
                 ; 0000 07C4 
                 ; 0000 07C5 // External Interrupt(s) initialization
                 ; 0000 07C6 // INT0: Off
                 ; 0000 07C7 // INT1: Off
                 ; 0000 07C8 // INT2: Off
                 ; 0000 07C9 // Interrupt on any change on pins PCINT0-7: On
                 ; 0000 07CA // Interrupt on any change on pins PCINT8-15: Off
                 ; 0000 07CB // Interrupt on any change on pins PCINT16-23: On
                 ; 0000 07CC // Interrupt on any change on pins PCINT24-31: Off
                 ; 0000 07CD EICRA=0x00;
000fde 93e0 0069 	STS  105,R30
                 ; 0000 07CE EIMSK=0x00;
000fe0 bbed      	OUT  0x1D,R30
                 ; 0000 07CF PCMSK0=0x03;
000fe1 e0e3      	LDI  R30,LOW(3)
000fe2 93e0 006b 	STS  107,R30
                 ; 0000 07D0 PCMSK2=0xFF;
000fe4 efef      	LDI  R30,LOW(255)
000fe5 93e0 006d 	STS  109,R30
                 ; 0000 07D1 PCICR=0x05;
000fe7 e0e5      	LDI  R30,LOW(5)
000fe8 93e0 0068 	STS  104,R30
                 ; 0000 07D2 PCIFR=0x05;
000fea bbeb      	OUT  0x1B,R30
                 ; 0000 07D3 
                 ; 0000 07D4 // Timer/Counter 0 Interrupt(s) initialization
                 ; 0000 07D5 TIMSK0=0x00;
000feb e0e0      	LDI  R30,LOW(0)
000fec 93e0 006e 	STS  110,R30
                 ; 0000 07D6 
                 ; 0000 07D7 // Timer/Counter 1 Interrupt(s) initialization
                 ; 0000 07D8 TIMSK1=0x00;
000fee 93e0 006f 	STS  111,R30
                 ; 0000 07D9 
                 ; 0000 07DA // Timer/Counter 2 Interrupt(s) initialization
                 ; 0000 07DB TIMSK2=0x00;
000ff0 93e0 0070 	STS  112,R30
                 ; 0000 07DC 
                 ; 0000 07DD // USART0 initialization
                 ; 0000 07DE // Communication Parameters: 8 Data, 1 Stop, No Parity
                 ; 0000 07DF // USART0 Receiver: On
                 ; 0000 07E0 // USART0 Transmitter: On
                 ; 0000 07E1 // USART0 Mode: Asynchronous
                 ; 0000 07E2 // USART0 Baud Rate: 115200
                 ; 0000 07E3 UCSR0A=0x00;
000ff2 93e0 00c0 	STS  192,R30
                 ; 0000 07E4 UCSR0B=0x98;
000ff4 e9e8      	LDI  R30,LOW(152)
000ff5 93e0 00c1 	STS  193,R30
                 ; 0000 07E5 UCSR0C=0x06;
000ff7 e0e6      	LDI  R30,LOW(6)
000ff8 93e0 00c2 	STS  194,R30
                 ; 0000 07E6 UBRR0H=0x00;
000ffa e0e0      	LDI  R30,LOW(0)
000ffb 93e0 00c5 	STS  197,R30
                 ; 0000 07E7 UBRR0L=0x03;
000ffd e0e3      	LDI  R30,LOW(3)
000ffe 93e0 00c4 	STS  196,R30
                 ; 0000 07E8 
                 ; 0000 07E9 // USART1 initialization
                 ; 0000 07EA // USART1 disabled
                 ; 0000 07EB UCSR1B=0x00;
001000 e0e0      	LDI  R30,LOW(0)
001001 93e0 00c9 	STS  201,R30
                 ; 0000 07EC 
                 ; 0000 07ED // Analog Comparator initialization
                 ; 0000 07EE // Analog Comparator: Off
                 ; 0000 07EF // Analog Comparator Input Capture by Timer/Counter 1: Off
                 ; 0000 07F0 ACSR=0x80;
001003 e8e0      	LDI  R30,LOW(128)
001004 bfe0      	OUT  0x30,R30
                 ; 0000 07F1 ADCSRB=0x00;
001005 e0e0      	LDI  R30,LOW(0)
001006 93e0 007b 	STS  123,R30
                 ; 0000 07F2 DIDR1=0x00;
001008 93e0 007f 	STS  127,R30
                 ; 0000 07F3 
                 ; 0000 07F4 // ADC initialization
                 ; 0000 07F5 // ADC disabled
                 ; 0000 07F6 ADCSRA=0x00;
00100a 93e0 007a 	STS  122,R30
                 ; 0000 07F7 
                 ; 0000 07F8 // SPI initialization
                 ; 0000 07F9 // SPI Type: Master
                 ; 0000 07FA // SPI Clock Rate: 921,600 kHz
                 ; 0000 07FB // SPI Clock Phase: Cycle Start
                 ; 0000 07FC // SPI Clock Polarity: Low
                 ; 0000 07FD // SPI Data Order: MSB First
                 ; 0000 07FE SPCR=0x50;
00100c e5e0      	LDI  R30,LOW(80)
00100d bdec      	OUT  0x2C,R30
                 ; 0000 07FF SPSR=0x00;
00100e e0e0      	LDI  R30,LOW(0)
00100f bded      	OUT  0x2D,R30
                 ; 0000 0800 
                 ; 0000 0801 // TWI initialization
                 ; 0000 0802 // TWI disabled
                 ; 0000 0803 TWCR=0x00;
001010 93e0 00bc 	STS  188,R30
                 ; 0000 0804 
                 ; 0000 0805 // Global enable interrupts
                 ; 0000 0806 
                 ; 0000 0807 #asm("cli")
001012 94f8      	cli
                 ; 0000 0808  for(i=0;i<256;i++) STAT[i]=0xFF;
001013 2455      	CLR  R5
001014 2466      	CLR  R6
                 _0x27B:
001015 e0e0      	LDI  R30,LOW(256)
001016 e0f1      	LDI  R31,HIGH(256)
001017 165e      	CP   R5,R30
001018 066f      	CPC  R6,R31
001019 f450      	BRSH _0x27C
00101a e6a6      	LDI  R26,LOW(_STAT)
00101b e0b0      	LDI  R27,HIGH(_STAT)
00101c 0da5      	ADD  R26,R5
00101d 1db6      	ADC  R27,R6
00101e efef      	LDI  R30,LOW(255)
00101f 940e 12b6 	CALL __EEPROMWRB
001021 940e 109f 	CALL SUBOPT_0x3
001023 cff1      	RJMP _0x27B
                 _0x27C:
                 ; 0000 0809 LD1.byte=0x00;
001024 e0a0      	LDI  R26,LOW(_LD1)
001025 e0b0      	LDI  R27,HIGH(_LD1)
001026 e0e0      	LDI  R30,LOW(0)
001027 940e 12b6 	CALL __EEPROMWRB
                 ; 0000 080A LD2.byte=0x00;
001029 e0a1      	LDI  R26,LOW(_LD2)
00102a e0b0      	LDI  R27,HIGH(_LD2)
00102b 940e 12b6 	CALL __EEPROMWRB
                 ; 0000 080B LD3.byte=0x00;
00102d e0a2      	LDI  R26,LOW(_LD3)
00102e e0b0      	LDI  R27,HIGH(_LD3)
00102f 940e 12b6 	CALL __EEPROMWRB
                 ; 0000 080C //LD3.Led.l1=1;
                 ; 0000 080D LOAD_LD();
001031 940e 021f 	CALL _LOAD_LD
                 ; 0000 080E delay_ms(1000);
001033 940e 11b7 	CALL SUBOPT_0x21
                 ; 0000 080F //============================================== ================================================================
                 ; 0000 0810  RESET_TR();
001035 940e 03f0 	CALL _RESET_TR
                 ; 0000 0811  delay_ms(10);
001037 e0ea      	LDI  R30,LOW(10)
001038 e0f0      	LDI  R31,HIGH(10)
001039 940e 119d 	CALL SUBOPT_0x1E
                 ; 0000 0812  INIT_TR();
00103b 940e 0412 	CALL _INIT_TR
                 ; 0000 0813  WRITE_PATABLE();
00103d 940e 042a 	CALL _WRITE_PATABLE
                 ; 0000 0814  STROB(SIDLE);
00103f 940e 1184 	CALL SUBOPT_0x1B
                 ; 0000 0815  STROB(SFRX);
                 ; 0000 0816  STROB(SFTX);
                 ; 0000 0817  STROB(SRX);
001041 e3e4      	LDI  R30,LOW(52)
001042 93ea      	ST   -Y,R30
001043 940e 0434 	CALL _STROB
                 ; 0000 0818  delay_ms(3);
001045 e0e3      	LDI  R30,LOW(3)
001046 e0f0      	LDI  R31,HIGH(3)
001047 940e 119d 	CALL SUBOPT_0x1E
                 ; 0000 0819 
                 ; 0000 081A LD3.Led.l2=1;
001049 940e 1081 	CALL SUBOPT_0x0
00104b 940e 1211 	CALL SUBOPT_0x31
                 ; 0000 081B  LOAD_LD();
                 ; 0000 081C  PCIFR|=0x01; //    
00104d 9ad8      	SBI  0x1B,0
                 ; 0000 081D  #asm("sei")
00104e 9478      	sei
                 ; 0000 081E  //============================================ ======================================================================
                 ; 0000 081F    delay_ms(500);
00104f 940e 123c 	CALL SUBOPT_0x37
                 ; 0000 0820  RESET_MODEM();
001051 940e 0501 	CALL _RESET_MODEM
                 ; 0000 0821 
                 ; 0000 0822  //SEND_Str("AT+COPS?\r");
                 ; 0000 0823 // delay_ms(1000);
                 ; 0000 0824 
                 ; 0000 0825 
                 ; 0000 0826   //SEND_Str("AT+CSTA=145\r");
                 ; 0000 0827   delay_ms(500);
001053 940e 123c 	CALL SUBOPT_0x37
                 ; 0000 0828   // SEND_Str("AT*PSSTKI=1\r");
                 ; 0000 0829   //delay_ms(100);
                 ; 0000 082A //CALL(1);
                 ; 0000 082B //SEND_Str("AT*PSSTK?\r");
                 ; 0000 082C // SEND_Str("ATD\"+79139357900\";\r");
                 ; 0000 082D        /*
                 ; 0000 082E delay_ms(15000);
                 ; 0000 082F  for(i=0;i<256;i++)
                 ; 0000 0830         {
                 ; 0000 0831         STAT[i]=rx_buffer0[i];
                 ; 0000 0832         }
                 ; 0000 0833         */
                 ; 0000 0834 
                 ; 0000 0835 
                 ; 0000 0836 
                 ; 0000 0837  LD3.Led.l1=1;
001055 940e 1081 	CALL SUBOPT_0x0
001057 940e 11dd 	CALL SUBOPT_0x29
                 ; 0000 0838  LOAD_LD();
001059 940e 021f 	CALL _LOAD_LD
                 ; 0000 0839 // delay_ms(3000);
                 ; 0000 083A // CALL(1);
                 ; 0000 083B 
                 ; 0000 083C while (1)
                 _0x27D:
                 ; 0000 083D       {
                 ; 0000 083E       LOAD_LD();
00105b 940e 021f 	CALL _LOAD_LD
                 ; 0000 083F       }
00105d cffd      	RJMP _0x27D
                 ; 0000 0840 }
                 _0x280:
00105e cfff      	RJMP _0x280
                 
                 	.CSEG
                 _strrchr:
00105f 9169          ld   r22,y+
001060 91a9          ld   r26,y+
001061 91b9          ld   r27,y+
001062 27ee          clr  r30
001063 27ff          clr  r31
                 strrchr0:
001064 917c          ld   r23,x
001065 1767          cp   r22,r23
001066 f409          brne strrchr1
001067 01fd          movw r30,r26
                 strrchr1:
001068 9611          adiw r26,1
001069 2377          tst  r23
00106a f7c9          brne strrchr0
00106b 9508          ret
                 _strstr:
00106c 81aa          ldd  r26,y+2
00106d 81bb          ldd  r27,y+3
00106e 01cd          movw r24,r26
                 strstr0:
00106f 81e8          ld   r30,y
001070 81f9          ldd  r31,y+1
                 strstr1:
001071 9171          ld   r23,z+
001072 2377          tst  r23
001073 f411          brne strstr2
001074 01fc          movw r30,r24
001075 c009          rjmp strstr3
                 strstr2:
001076 916d          ld   r22,x+
001077 1767          cp   r22,r23
001078 f3c1          breq strstr1
001079 9601          adiw r24,1
00107a 01dc          movw r26,r24
00107b 2366          tst  r22
00107c f791          brne strstr0
00107d 27ee          clr  r30
00107e 27ff          clr  r31
                 strstr3:
00107f 9624      	ADIW R28,4
001080 9508      	RET
                 
                 	.CSEG
                 
                 	.DSEG
                 
                 	.CSEG
                 	#ifndef __SLEEP_DEFINED__
                 	#endif
                 
                 	.CSEG
                 	#ifndef __SLEEP_DEFINED__
                 	#endif
                 
                 	.CSEG
                 
                 	.CSEG
                 
                 	.CSEG
                 
                 	.DSEG
                 _rx_buffer0:
000267           	.BYTE 0x200
                 _NR:
000467           	.BYTE 0xC
                 _SPI_buffer:
000473           	.BYTE 0x40
                 
                 	.ESEG
                 _LD1:
000000           	.BYTE 0x1
                 _LD2:
000001           	.BYTE 0x1
                 _LD3:
000002           	.BYTE 0x1
                 _DAT1:
000003 30
000004 32
000005 36
000006 30        	.DB  LOW(0x30363230),HIGH(0x30363230),BYTE3(0x30363230),BYTE4(0x30363230)
000007 32 36     	.DW  0x3632
000009 00        	.DB  0x0
                 _DAT2:
00000a 31
00000b 32
00000c 38
00000d 31        	.DB  LOW(0x31383231),HIGH(0x31383231),BYTE3(0x31383231),BYTE4(0x31383231)
00000e 32 38     	.DW  0x3832
000010 00        	.DB  0x0
                 _DAT3:
000011 32
000012 35
000013 36
000014 32        	.DB  LOW(0x32363532),HIGH(0x32363532),BYTE3(0x32363532),BYTE4(0x32363532)
000015 35 36     	.DW  0x3635
000017 00        	.DB  0x0
                 _DAT4:
000018 46
000019 46
00001a 46
00001b 46        	.DB  LOW(0x46464646),HIGH(0x46464646),BYTE3(0x46464646),BYTE4(0x46464646)
00001c 46 46     	.DW  0x4646
00001e 00        	.DB  0x0
                 _DAT5:
00001f 46
000020 46
000021 46
000022 46        	.DB  LOW(0x46464646),HIGH(0x46464646),BYTE3(0x46464646),BYTE4(0x46464646)
000023 46 46     	.DW  0x4646
000025 00        	.DB  0x0
                 _DAT6:
000026 46
000027 46
000028 46
000029 46        	.DB  LOW(0x46464646),HIGH(0x46464646),BYTE3(0x46464646),BYTE4(0x46464646)
00002a 46 46     	.DW  0x4646
00002c 00        	.DB  0x0
                 _DAT7:
00002d 46
00002e 46
00002f 46
000030 46        	.DB  LOW(0x46464646),HIGH(0x46464646),BYTE3(0x46464646),BYTE4(0x46464646)
000031 46 46     	.DW  0x4646
000033 00        	.DB  0x0
                 _DAT8:
000034 46
000035 46
000036 46
000037 46        	.DB  LOW(0x46464646),HIGH(0x46464646),BYTE3(0x46464646),BYTE4(0x46464646)
000038 46 46     	.DW  0x4646
00003a 00        	.DB  0x0
                 _BREL1:
00003b 31
00003c 36
00003d 34
00003e 31        	.DB  LOW(0x31343631),HIGH(0x31343631),BYTE3(0x31343631),BYTE4(0x31343631)
00003f 36 34     	.DW  0x3436
000041 00        	.DB  0x0
                 _BREL2:
000042 32
000043 35
000044 30
000045 32        	.DB  LOW(0x32303532),HIGH(0x32303532),BYTE3(0x32303532),BYTE4(0x32303532)
000046 35 30     	.DW  0x3035
000048 00        	.DB  0x0
                 _BREL3:
000049 46
00004a 46
00004b 46
00004c 46        	.DB  LOW(0x46464646),HIGH(0x46464646),BYTE3(0x46464646),BYTE4(0x46464646)
00004d 46 46     	.DW  0x4646
00004f 00        	.DB  0x0
                 _BREL4:
000050 46
000051 46
000052 46
000053 46        	.DB  LOW(0x46464646),HIGH(0x46464646),BYTE3(0x46464646),BYTE4(0x46464646)
000054 46 46     	.DW  0x4646
000056 00        	.DB  0x0
                 _BREL5:
000057 46
000058 46
000059 46
00005a 46        	.DB  LOW(0x46464646),HIGH(0x46464646),BYTE3(0x46464646),BYTE4(0x46464646)
00005b 46 46     	.DW  0x4646
00005d 00        	.DB  0x0
                 _BREL6:
00005e 46
00005f 46
000060 46
000061 46        	.DB  LOW(0x46464646),HIGH(0x46464646),BYTE3(0x46464646),BYTE4(0x46464646)
000062 46 46     	.DW  0x4646
000064 00        	.DB  0x0
                 _OP:
000065           	.BYTE 0x1
                 _STAT:
000066           	.BYTE 0x100
                 
                 	.DSEG
                 __seed_G101:
0004b3           	.BYTE 0x4
                 
                 	.CSEG
                 ;OPTIMIZER ADDED SUBROUTINE, CALLED 57 TIMES, CODE SIZE REDUCTION:109 WORDS
                 SUBOPT_0x0:
001081 e0a2      	LDI  R26,LOW(_LD3)
001082 e0b0      	LDI  R27,HIGH(_LD3)
001083 940e 12aa 	CALL __EEPROMRDB
001085 9508      	RET
                 
                 ;OPTIMIZER ADDED SUBROUTINE, CALLED 3 TIMES, CODE SIZE REDUCTION:1 WORDS
                 SUBOPT_0x1:
001086 e0e8      	LDI  R30,LOW(8)
001087 e0f0      	LDI  R31,HIGH(8)
001088 165e      	CP   R5,R30
001089 066f      	CPC  R6,R31
00108a 9508      	RET
                 
                 ;OPTIMIZER ADDED SUBROUTINE, CALLED 3 TIMES, CODE SIZE REDUCTION:35 WORDS
                 SUBOPT_0x2:
00108b 81e8      	LD   R30,Y
00108c e0f0      	LDI  R31,0
00108d 95f5      	ASR  R31
00108e 95e7      	ROR  R30
00108f 83e8      	ST   Y,R30
001090 e0e1      	LDI  R30,LOW(1)
001091 e0f0      	LDI  R31,HIGH(1)
001092 93fa      	ST   -Y,R31
001093 93ea      	ST   -Y,R30
001094 940e 129a 	CALL _delay_ms
001096 9a13      	SBI  0x2,3
001097 e0e1      	LDI  R30,LOW(1)
001098 e0f0      	LDI  R31,HIGH(1)
001099 93fa      	ST   -Y,R31
00109a 93ea      	ST   -Y,R30
00109b 940e 129a 	CALL _delay_ms
00109d 9813      	CBI  0x2,3
00109e 9508      	RET
                 
                 ;OPTIMIZER ADDED SUBROUTINE, CALLED 53 TIMES, CODE SIZE REDUCTION:101 WORDS
                 SUBOPT_0x3:
00109f e0e1      	LDI  R30,LOW(1)
0010a0 e0f0      	LDI  R31,HIGH(1)
                +
0010a1 0e5e     +ADD R5 , R30
0010a2 1e6f     +ADC R6 , R31
                 	__ADDWRR 5,6,30,31
0010a3 9508      	RET
                 
                 ;OPTIMIZER ADDED SUBROUTINE, CALLED 59 TIMES, CODE SIZE REDUCTION:113 WORDS
                 SUBOPT_0x4:
0010a4 e0a1      	LDI  R26,LOW(_LD2)
0010a5 e0b0      	LDI  R27,HIGH(_LD2)
0010a6 940e 12aa 	CALL __EEPROMRDB
0010a8 9508      	RET
                 
                 ;OPTIMIZER ADDED SUBROUTINE, CALLED 72 TIMES, CODE SIZE REDUCTION:139 WORDS
                 SUBOPT_0x5:
0010a9 e0a0      	LDI  R26,LOW(_LD1)
0010aa e0b0      	LDI  R27,HIGH(_LD1)
0010ab 940e 12aa 	CALL __EEPROMRDB
0010ad 9508      	RET
                 
                 ;OPTIMIZER ADDED SUBROUTINE, CALLED 19 TIMES, CODE SIZE REDUCTION:69 WORDS
                 SUBOPT_0x6:
0010ae e0e1      	LDI  R30,LOW(1)
0010af e0f0      	LDI  R31,HIGH(1)
0010b0 93fa      	ST   -Y,R31
0010b1 93ea      	ST   -Y,R30
0010b2 940c 129a 	JMP  _delay_ms
                 
                 ;OPTIMIZER ADDED SUBROUTINE, CALLED 3 TIMES, CODE SIZE REDUCTION:7 WORDS
                 SUBOPT_0x7:
                +
0010b4 2da5     +MOV R26 , R5
0010b5 2db6     +MOV R27 , R6
                 	__GETW2R 5,6
0010b6 e0f0      	LDI  R31,0
0010b7 17ae      	CP   R26,R30
0010b8 07bf      	CPC  R27,R31
0010b9 9508      	RET
                 
                 ;OPTIMIZER ADDED SUBROUTINE, CALLED 6 TIMES, CODE SIZE REDUCTION:17 WORDS
                 SUBOPT_0x8:
                +
0010ba 2de5     +MOV R30 , R5
0010bb 2df6     +MOV R31 , R6
                 	__GETW1R 5,6
0010bc 9631      	ADIW R30,1
                +
0010bd 2e5e     +MOV R5 , R30
0010be 2e6f     +MOV R6 , R31
                 	__PUTW1R 5,6
0010bf 9731      	SBIW R30,1
0010c0 9508      	RET
                 
                 ;OPTIMIZER ADDED SUBROUTINE, CALLED 2 TIMES, CODE SIZE REDUCTION:6 WORDS
                 SUBOPT_0x9:
0010c1 92aa      	ST   -Y,R10
0010c2 929a      	ST   -Y,R9
0010c3 e0e3      	LDI  R30,LOW(_DAT1)
0010c4 e0f0      	LDI  R31,HIGH(_DAT1)
0010c5 93fa      	ST   -Y,R31
0010c6 93ea      	ST   -Y,R30
0010c7 e0e6      	LDI  R30,LOW(6)
0010c8 93ea      	ST   -Y,R30
0010c9 940e 0261 	CALL _VALID_CODE
0010cb 30e0      	CPI  R30,0
0010cc 9508      	RET
                 
                 ;OPTIMIZER ADDED SUBROUTINE, CALLED 2 TIMES, CODE SIZE REDUCTION:6 WORDS
                 SUBOPT_0xA:
0010cd 92aa      	ST   -Y,R10
0010ce 929a      	ST   -Y,R9
0010cf e0ea      	LDI  R30,LOW(_DAT2)
0010d0 e0f0      	LDI  R31,HIGH(_DAT2)
0010d1 93fa      	ST   -Y,R31
0010d2 93ea      	ST   -Y,R30
0010d3 e0e6      	LDI  R30,LOW(6)
0010d4 93ea      	ST   -Y,R30
0010d5 940e 0261 	CALL _VALID_CODE
0010d7 30e0      	CPI  R30,0
0010d8 9508      	RET
                 
                 ;OPTIMIZER ADDED SUBROUTINE, CALLED 2 TIMES, CODE SIZE REDUCTION:6 WORDS
                 SUBOPT_0xB:
0010d9 92aa      	ST   -Y,R10
0010da 929a      	ST   -Y,R9
0010db e1e1      	LDI  R30,LOW(_DAT3)
0010dc e0f0      	LDI  R31,HIGH(_DAT3)
0010dd 93fa      	ST   -Y,R31
0010de 93ea      	ST   -Y,R30
0010df e0e6      	LDI  R30,LOW(6)
0010e0 93ea      	ST   -Y,R30
0010e1 940e 0261 	CALL _VALID_CODE
0010e3 30e0      	CPI  R30,0
0010e4 9508      	RET
                 
                 ;OPTIMIZER ADDED SUBROUTINE, CALLED 2 TIMES, CODE SIZE REDUCTION:6 WORDS
                 SUBOPT_0xC:
0010e5 92aa      	ST   -Y,R10
0010e6 929a      	ST   -Y,R9
0010e7 e1e8      	LDI  R30,LOW(_DAT4)
0010e8 e0f0      	LDI  R31,HIGH(_DAT4)
0010e9 93fa      	ST   -Y,R31
0010ea 93ea      	ST   -Y,R30
0010eb e0e6      	LDI  R30,LOW(6)
0010ec 93ea      	ST   -Y,R30
0010ed 940e 0261 	CALL _VALID_CODE
0010ef 30e0      	CPI  R30,0
0010f0 9508      	RET
                 
                 ;OPTIMIZER ADDED SUBROUTINE, CALLED 2 TIMES, CODE SIZE REDUCTION:6 WORDS
                 SUBOPT_0xD:
0010f1 92aa      	ST   -Y,R10
0010f2 929a      	ST   -Y,R9
0010f3 e1ef      	LDI  R30,LOW(_DAT5)
0010f4 e0f0      	LDI  R31,HIGH(_DAT5)
0010f5 93fa      	ST   -Y,R31
0010f6 93ea      	ST   -Y,R30
0010f7 e0e6      	LDI  R30,LOW(6)
0010f8 93ea      	ST   -Y,R30
0010f9 940e 0261 	CALL _VALID_CODE
0010fb 30e0      	CPI  R30,0
0010fc 9508      	RET
                 
                 ;OPTIMIZER ADDED SUBROUTINE, CALLED 2 TIMES, CODE SIZE REDUCTION:6 WORDS
                 SUBOPT_0xE:
0010fd 92aa      	ST   -Y,R10
0010fe 929a      	ST   -Y,R9
0010ff e2e6      	LDI  R30,LOW(_DAT6)
001100 e0f0      	LDI  R31,HIGH(_DAT6)
001101 93fa      	ST   -Y,R31
001102 93ea      	ST   -Y,R30
001103 e0e6      	LDI  R30,LOW(6)
001104 93ea      	ST   -Y,R30
001105 940e 0261 	CALL _VALID_CODE
001107 30e0      	CPI  R30,0
001108 9508      	RET
                 
                 ;OPTIMIZER ADDED SUBROUTINE, CALLED 2 TIMES, CODE SIZE REDUCTION:6 WORDS
                 SUBOPT_0xF:
001109 92aa      	ST   -Y,R10
00110a 929a      	ST   -Y,R9
00110b e2ed      	LDI  R30,LOW(_DAT7)
00110c e0f0      	LDI  R31,HIGH(_DAT7)
00110d 93fa      	ST   -Y,R31
00110e 93ea      	ST   -Y,R30
00110f e0e6      	LDI  R30,LOW(6)
001110 93ea      	ST   -Y,R30
001111 940e 0261 	CALL _VALID_CODE
001113 30e0      	CPI  R30,0
001114 9508      	RET
                 
                 ;OPTIMIZER ADDED SUBROUTINE, CALLED 2 TIMES, CODE SIZE REDUCTION:6 WORDS
                 SUBOPT_0x10:
001115 92aa      	ST   -Y,R10
001116 929a      	ST   -Y,R9
001117 e3e4      	LDI  R30,LOW(_DAT8)
001118 e0f0      	LDI  R31,HIGH(_DAT8)
001119 93fa      	ST   -Y,R31
00111a 93ea      	ST   -Y,R30
00111b e0e6      	LDI  R30,LOW(6)
00111c 93ea      	ST   -Y,R30
00111d 940e 0261 	CALL _VALID_CODE
00111f 30e0      	CPI  R30,0
001120 9508      	RET
                 
                 ;OPTIMIZER ADDED SUBROUTINE, CALLED 2 TIMES, CODE SIZE REDUCTION:6 WORDS
                 SUBOPT_0x11:
001121 92aa      	ST   -Y,R10
001122 929a      	ST   -Y,R9
001123 e3eb      	LDI  R30,LOW(_BREL1)
001124 e0f0      	LDI  R31,HIGH(_BREL1)
001125 93fa      	ST   -Y,R31
001126 93ea      	ST   -Y,R30
001127 e0e6      	LDI  R30,LOW(6)
001128 93ea      	ST   -Y,R30
001129 940e 0261 	CALL _VALID_CODE
00112b 30e0      	CPI  R30,0
00112c 9508      	RET
                 
                 ;OPTIMIZER ADDED SUBROUTINE, CALLED 2 TIMES, CODE SIZE REDUCTION:6 WORDS
                 SUBOPT_0x12:
00112d 92aa      	ST   -Y,R10
00112e 929a      	ST   -Y,R9
00112f e4e2      	LDI  R30,LOW(_BREL2)
001130 e0f0      	LDI  R31,HIGH(_BREL2)
001131 93fa      	ST   -Y,R31
001132 93ea      	ST   -Y,R30
001133 e0e6      	LDI  R30,LOW(6)
001134 93ea      	ST   -Y,R30
001135 940e 0261 	CALL _VALID_CODE
001137 30e0      	CPI  R30,0
001138 9508      	RET
                 
                 ;OPTIMIZER ADDED SUBROUTINE, CALLED 2 TIMES, CODE SIZE REDUCTION:6 WORDS
                 SUBOPT_0x13:
001139 92aa      	ST   -Y,R10
00113a 929a      	ST   -Y,R9
00113b e4e9      	LDI  R30,LOW(_BREL3)
00113c e0f0      	LDI  R31,HIGH(_BREL3)
00113d 93fa      	ST   -Y,R31
00113e 93ea      	ST   -Y,R30
00113f e0e6      	LDI  R30,LOW(6)
001140 93ea      	ST   -Y,R30
001141 940e 0261 	CALL _VALID_CODE
001143 30e0      	CPI  R30,0
001144 9508      	RET
                 
                 ;OPTIMIZER ADDED SUBROUTINE, CALLED 2 TIMES, CODE SIZE REDUCTION:6 WORDS
                 SUBOPT_0x14:
001145 92aa      	ST   -Y,R10
001146 929a      	ST   -Y,R9
001147 e5e0      	LDI  R30,LOW(_BREL4)
001148 e0f0      	LDI  R31,HIGH(_BREL4)
001149 93fa      	ST   -Y,R31
00114a 93ea      	ST   -Y,R30
00114b e0e6      	LDI  R30,LOW(6)
00114c 93ea      	ST   -Y,R30
00114d 940e 0261 	CALL _VALID_CODE
00114f 30e0      	CPI  R30,0
001150 9508      	RET
                 
                 ;OPTIMIZER ADDED SUBROUTINE, CALLED 2 TIMES, CODE SIZE REDUCTION:6 WORDS
                 SUBOPT_0x15:
001151 92aa      	ST   -Y,R10
001152 929a      	ST   -Y,R9
001153 e5e7      	LDI  R30,LOW(_BREL5)
001154 e0f0      	LDI  R31,HIGH(_BREL5)
001155 93fa      	ST   -Y,R31
001156 93ea      	ST   -Y,R30
001157 e0e6      	LDI  R30,LOW(6)
001158 93ea      	ST   -Y,R30
001159 940e 0261 	CALL _VALID_CODE
00115b 30e0      	CPI  R30,0
00115c 9508      	RET
                 
                 ;OPTIMIZER ADDED SUBROUTINE, CALLED 2 TIMES, CODE SIZE REDUCTION:6 WORDS
                 SUBOPT_0x16:
00115d 92aa      	ST   -Y,R10
00115e 929a      	ST   -Y,R9
00115f e5ee      	LDI  R30,LOW(_BREL6)
001160 e0f0      	LDI  R31,HIGH(_BREL6)
001161 93fa      	ST   -Y,R31
001162 93ea      	ST   -Y,R30
001163 e0e6      	LDI  R30,LOW(6)
001164 93ea      	ST   -Y,R30
001165 940e 0261 	CALL _VALID_CODE
001167 30e0      	CPI  R30,0
001168 9508      	RET
                 
                 ;OPTIMIZER ADDED SUBROUTINE, CALLED 5 TIMES, CODE SIZE REDUCTION:13 WORDS
                 SUBOPT_0x17:
001169 e0f0      	LDI  R31,0
00116a 30e1      	CPI  R30,LOW(0x1)
00116b e0a0      	LDI  R26,HIGH(0x1)
00116c 07fa      	CPC  R31,R26
00116d 9508      	RET
                 
                 ;OPTIMIZER ADDED SUBROUTINE, CALLED 28 TIMES, CODE SIZE REDUCTION:51 WORDS
                 SUBOPT_0x18:
00116e e0e6      	LDI  R30,LOW(6)
00116f e0f0      	LDI  R31,HIGH(6)
001170 165e      	CP   R5,R30
001171 066f      	CPC  R6,R31
001172 9508      	RET
                 
                 ;OPTIMIZER ADDED SUBROUTINE, CALLED 14 TIMES, CODE SIZE REDUCTION:88 WORDS
                 SUBOPT_0x19:
                +
001173 2de9     +MOV R30 , R9
001174 2dfa     +MOV R31 , R10
                 	__GETW1R 9,10
001175 9631      	ADIW R30,1
                +
001176 2e9e     +MOV R9 , R30
001177 2eaf     +MOV R10 , R31
                 	__PUTW1R 9,10
001178 9731      	SBIW R30,1
001179 81e0      	LD   R30,Z
00117a 940e 12b6 	CALL __EEPROMWRB
00117c 9508      	RET
                 
                 ;OPTIMIZER ADDED SUBROUTINE, CALLED 2 TIMES, CODE SIZE REDUCTION:2 WORDS
                 SUBOPT_0x1A:
00117d 93ea      	ST   -Y,R30
00117e 940e 03e9 	CALL _SPI_SEND
001180 81e8      	LD   R30,Y
001181 93ea      	ST   -Y,R30
001182 940c 03e9 	JMP  _SPI_SEND
                 
                 ;OPTIMIZER ADDED SUBROUTINE, CALLED 5 TIMES, CODE SIZE REDUCTION:37 WORDS
                 SUBOPT_0x1B:
001184 e3e6      	LDI  R30,LOW(54)
001185 93ea      	ST   -Y,R30
001186 940e 0434 	CALL _STROB
001188 e3ea      	LDI  R30,LOW(58)
001189 93ea      	ST   -Y,R30
00118a 940e 0434 	CALL _STROB
00118c e3eb      	LDI  R30,LOW(59)
00118d 93ea      	ST   -Y,R30
00118e 940c 0434 	JMP  _STROB
                 
                 ;OPTIMIZER ADDED SUBROUTINE, CALLED 9 TIMES, CODE SIZE REDUCTION:13 WORDS
                 SUBOPT_0x1C:
001190 0da5      	ADD  R26,R5
001191 1db6      	ADC  R27,R6
001192 91ec      	LD   R30,X
001193 93ea      	ST   -Y,R30
001194 9508      	RET
                 
                 ;OPTIMIZER ADDED SUBROUTINE, CALLED 2 TIMES, CODE SIZE REDUCTION:2 WORDS
                 SUBOPT_0x1D:
001195 81e8      	LD   R30,Y
001196 81f9      	LDD  R31,Y+1
001197 9631      	ADIW R30,1
001198 83e8      	ST   Y,R30
001199 83f9      	STD  Y+1,R31
00119a 9731      	SBIW R30,1
00119b 91e4      	LPM  R30,Z
00119c 9508      	RET
                 
                 ;OPTIMIZER ADDED SUBROUTINE, CALLED 104 TIMES, CODE SIZE REDUCTION:203 WORDS
                 SUBOPT_0x1E:
00119d 93fa      	ST   -Y,R31
00119e 93ea      	ST   -Y,R30
00119f 940c 129a 	JMP  _delay_ms
                 
                 ;OPTIMIZER ADDED SUBROUTINE, CALLED 2 TIMES, CODE SIZE REDUCTION:8 WORDS
                 SUBOPT_0x1F:
0011a1 940e 12c7 	CALL __SAVELOCR4
0011a3 e6e7      	LDI  R30,LOW(_rx_buffer0)
0011a4 e0f2      	LDI  R31,HIGH(_rx_buffer0)
0011a5 93fa      	ST   -Y,R31
0011a6 93ea      	ST   -Y,R30
0011a7 01fe      	MOVW R30,R28
0011a8 9636      	ADIW R30,6
0011a9 93fa      	ST   -Y,R31
0011aa 93ea      	ST   -Y,R30
0011ab 940e 106c 	CALL _strstr
0011ad 019f      	MOVW R18,R30
0011ae 9508      	RET
                 
                 ;OPTIMIZER ADDED SUBROUTINE, CALLED 2 TIMES, CODE SIZE REDUCTION:2 WORDS
                 SUBOPT_0x20:
0011af 01d9      	MOVW R26,R18
0011b0 911c      	LD   R17,X
0011b1 940e 04cb 	CALL _CLEAR_BUF
0011b3 2fe1      	MOV  R30,R17
0011b4 940e 12cc 	CALL __LOADLOCR4
0011b6 9508      	RET
                 
                 ;OPTIMIZER ADDED SUBROUTINE, CALLED 3 TIMES, CODE SIZE REDUCTION:1 WORDS
                 SUBOPT_0x21:
0011b7 eee8      	LDI  R30,LOW(1000)
0011b8 e0f3      	LDI  R31,HIGH(1000)
0011b9 cfe3      	RJMP SUBOPT_0x1E
                 
                 ;OPTIMIZER ADDED SUBROUTINE, CALLED 12 TIMES, CODE SIZE REDUCTION:19 WORDS
                 SUBOPT_0x22:
0011ba e6e4      	LDI  R30,LOW(100)
0011bb e0f0      	LDI  R31,HIGH(100)
0011bc cfe0      	RJMP SUBOPT_0x1E
                 
                 ;OPTIMIZER ADDED SUBROUTINE, CALLED 42 TIMES, CODE SIZE REDUCTION:79 WORDS
                 SUBOPT_0x23:
0011bd 93fa      	ST   -Y,R31
0011be 93ea      	ST   -Y,R30
0011bf 940c 04bc 	JMP  _SEND_Str
                 
                 ;OPTIMIZER ADDED SUBROUTINE, CALLED 16 TIMES, CODE SIZE REDUCTION:27 WORDS
                 SUBOPT_0x24:
0011c1 e6e7      	LDI  R30,LOW(_rx_buffer0)
0011c2 e0f2      	LDI  R31,HIGH(_rx_buffer0)
0011c3 93fa      	ST   -Y,R31
0011c4 93ea      	ST   -Y,R30
0011c5 9508      	RET
                 
                 ;OPTIMIZER ADDED SUBROUTINE, CALLED 18 TIMES, CODE SIZE REDUCTION:31 WORDS
                 SUBOPT_0x25:
0011c6 93fa      	ST   -Y,R31
0011c7 93ea      	ST   -Y,R30
0011c8 940c 106c 	JMP  _strstr
                 
                 ;OPTIMIZER ADDED SUBROUTINE, CALLED 11 TIMES, CODE SIZE REDUCTION:17 WORDS
                 SUBOPT_0x26:
0011ca e0ec      	LDI  R30,LOW(12)
0011cb e0f0      	LDI  R31,HIGH(12)
0011cc 165e      	CP   R5,R30
0011cd 066f      	CPC  R6,R31
0011ce 9508      	RET
                 
                 ;OPTIMIZER ADDED SUBROUTINE, CALLED 2 TIMES, CODE SIZE REDUCTION:2 WORDS
                 SUBOPT_0x27:
0011cf 59e9      	SUBI R30,LOW(-_NR)
0011d0 4ffb      	SBCI R31,HIGH(-_NR)
0011d1 010f      	MOVW R0,R30
0011d2 01d9      	MOVW R26,R18
0011d3 91ec      	LD   R30,X
0011d4 01d0      	MOVW R26,R0
0011d5 93ec      	ST   X,R30
0011d6 9508      	RET
                 
                 ;OPTIMIZER ADDED SUBROUTINE, CALLED 16 TIMES, CODE SIZE REDUCTION:57 WORDS
                 SUBOPT_0x28:
0011d7 73ef      	ANDI R30,LOW(0x3F)
0011d8 68e0      	ORI  R30,0x80
0011d9 940e 12b6 	CALL __EEPROMWRB
0011db 940c 021f 	JMP  _LOAD_LD
                 
                 ;OPTIMIZER ADDED SUBROUTINE, CALLED 31 TIMES, CODE SIZE REDUCTION:57 WORDS
                 SUBOPT_0x29:
0011dd 73ef      	ANDI R30,LOW(0x3F)
0011de 64e0      	ORI  R30,0x40
0011df 940e 12b6 	CALL __EEPROMWRB
0011e1 9508      	RET
                 
                 ;OPTIMIZER ADDED SUBROUTINE, CALLED 7 TIMES, CODE SIZE REDUCTION:9 WORDS
                 SUBOPT_0x2A:
0011e2 e6a7      	LDI  R26,LOW(_NR)
0011e3 e0b4      	LDI  R27,HIGH(_NR)
0011e4 cfab      	RJMP SUBOPT_0x1C
                 
                 ;OPTIMIZER ADDED SUBROUTINE, CALLED 3 TIMES, CODE SIZE REDUCTION:1 WORDS
                 SUBOPT_0x2B:
                +
0011e5 2e9e     +MOV R9 , R30
0011e6 2eaf     +MOV R10 , R31
                 	__PUTW1R 9,10
0011e7 2c09      	MOV  R0,R9
0011e8 280a      	OR   R0,R10
0011e9 9508      	RET
                 
                 ;OPTIMIZER ADDED SUBROUTINE, CALLED 6 TIMES, CODE SIZE REDUCTION:7 WORDS
                 SUBOPT_0x2C:
0011ea e6e7      	LDI  R30,LOW(_NR)
0011eb e0f4      	LDI  R31,HIGH(_NR)
0011ec cfd9      	RJMP SUBOPT_0x25
                 
                 ;OPTIMIZER ADDED SUBROUTINE, CALLED 2 TIMES, CODE SIZE REDUCTION:8 WORDS
                 SUBOPT_0x2D:
0011ed 920a      	ST   -Y,R0
0011ee 921a      	ST   -Y,R1
0011ef 92fa      	ST   -Y,R15
0011f0 936a      	ST   -Y,R22
0011f1 937a      	ST   -Y,R23
0011f2 938a      	ST   -Y,R24
0011f3 939a      	ST   -Y,R25
0011f4 93aa      	ST   -Y,R26
0011f5 93ba      	ST   -Y,R27
0011f6 93ea      	ST   -Y,R30
0011f7 93fa      	ST   -Y,R31
0011f8 b7ef      	IN   R30,SREG
0011f9 93ea      	ST   -Y,R30
0011fa 9508      	RET
                 
                 ;OPTIMIZER ADDED SUBROUTINE, CALLED 3 TIMES, CODE SIZE REDUCTION:1 WORDS
                 SUBOPT_0x2E:
0011fb e7e3      	LDI  R30,LOW(_SPI_buffer)
0011fc e0f4      	LDI  R31,HIGH(_SPI_buffer)
0011fd 93fa      	ST   -Y,R31
0011fe 93ea      	ST   -Y,R30
0011ff 9508      	RET
                 
                 ;OPTIMIZER ADDED SUBROUTINE, CALLED 3 TIMES, CODE SIZE REDUCTION:11 WORDS
                 SUBOPT_0x2F:
001200 93ea      	ST   -Y,R30
001201 940e 05e7 	CALL _SEND_SMS
001203 e0e1      	LDI  R30,LOW(1)
001204 93ea      	ST   -Y,R30
001205 940e 0558 	CALL _CALL
001207 cea1      	RJMP SUBOPT_0x5
                 
                 ;OPTIMIZER ADDED SUBROUTINE, CALLED 2 TIMES, CODE SIZE REDUCTION:3 WORDS
                 SUBOPT_0x30:
001208 7cef      	ANDI R30,LOW(0xCF)
001209 62e0      	ORI  R30,0x20
00120a 940e 12b6 	CALL __EEPROMWRB
00120c 940e 021f 	CALL _LOAD_LD
00120e e0e1      	LDI  R30,LOW(1)
00120f 93ea      	ST   -Y,R30
001210 9508      	RET
                 
                 ;OPTIMIZER ADDED SUBROUTINE, CALLED 11 TIMES, CODE SIZE REDUCTION:37 WORDS
                 SUBOPT_0x31:
001211 7cef      	ANDI R30,LOW(0xCF)
001212 61e0      	ORI  R30,0x10
001213 940e 12b6 	CALL __EEPROMWRB
001215 940c 021f 	JMP  _LOAD_LD
                 
                 ;OPTIMIZER ADDED SUBROUTINE, CALLED 2 TIMES, CODE SIZE REDUCTION:3 WORDS
                 SUBOPT_0x32:
001217 7fe3      	ANDI R30,LOW(0xF3)
001218 60e8      	ORI  R30,8
001219 940e 12b6 	CALL __EEPROMWRB
00121b 940e 021f 	CALL _LOAD_LD
00121d e0e1      	LDI  R30,LOW(1)
00121e 93ea      	ST   -Y,R30
00121f 9508      	RET
                 
                 ;OPTIMIZER ADDED SUBROUTINE, CALLED 5 TIMES, CODE SIZE REDUCTION:17 WORDS
                 SUBOPT_0x33:
001220 93ea      	ST   -Y,R30
001221 940e 05e7 	CALL _SEND_SMS
001223 e0e1      	LDI  R30,LOW(1)
001224 93ea      	ST   -Y,R30
001225 940c 0558 	JMP  _CALL
                 
                 ;OPTIMIZER ADDED SUBROUTINE, CALLED 2 TIMES, CODE SIZE REDUCTION:3 WORDS
                 SUBOPT_0x34:
001227 7fec      	ANDI R30,LOW(0xFC)
001228 60e2      	ORI  R30,2
001229 940e 12b6 	CALL __EEPROMWRB
00122b 940e 021f 	CALL _LOAD_LD
00122d e0e1      	LDI  R30,LOW(1)
00122e 93ea      	ST   -Y,R30
00122f 9508      	RET
                 
                 ;OPTIMIZER ADDED SUBROUTINE, CALLED 4 TIMES, CODE SIZE REDUCTION:9 WORDS
                 SUBOPT_0x35:
001230 7fec      	ANDI R30,LOW(0xFC)
001231 60e1      	ORI  R30,1
001232 940e 12b6 	CALL __EEPROMWRB
001234 940c 021f 	JMP  _LOAD_LD
                 
                 ;OPTIMIZER ADDED SUBROUTINE, CALLED 3 TIMES, CODE SIZE REDUCTION:5 WORDS
                 SUBOPT_0x36:
001236 7fe3      	ANDI R30,LOW(0xF3)
001237 60e4      	ORI  R30,4
001238 940e 12b6 	CALL __EEPROMWRB
00123a 940c 021f 	JMP  _LOAD_LD
                 
                 ;OPTIMIZER ADDED SUBROUTINE, CALLED 3 TIMES, CODE SIZE REDUCTION:1 WORDS
                 SUBOPT_0x37:
00123c efe4      	LDI  R30,LOW(500)
00123d e0f1      	LDI  R31,HIGH(500)
00123e cf5e      	RJMP SUBOPT_0x1E
                 
                 ;OPTIMIZER ADDED SUBROUTINE, CALLED 2 TIMES, CODE SIZE REDUCTION:8 WORDS
                 SUBOPT_0x38:
00123f 91e9      	LD   R30,Y+
001240 bfef      	OUT  SREG,R30
001241 91f9      	LD   R31,Y+
001242 91e9      	LD   R30,Y+
001243 91b9      	LD   R27,Y+
001244 91a9      	LD   R26,Y+
001245 9199      	LD   R25,Y+
001246 9189      	LD   R24,Y+
001247 9179      	LD   R23,Y+
001248 9169      	LD   R22,Y+
001249 90f9      	LD   R15,Y+
00124a 9019      	LD   R1,Y+
00124b 9009      	LD   R0,Y+
00124c 9508      	RET
                 
                 ;OPTIMIZER ADDED SUBROUTINE, CALLED 8 TIMES, CODE SIZE REDUCTION:11 WORDS
                 SUBOPT_0x39:
00124d ebe8      	LDI  R30,LOW(3000)
00124e e0fb      	LDI  R31,HIGH(3000)
00124f 165e      	CP   R5,R30
001250 066f      	CPC  R6,R31
001251 9508      	RET
                 
                 ;OPTIMIZER ADDED SUBROUTINE, CALLED 14 TIMES, CODE SIZE REDUCTION:36 WORDS
                 SUBOPT_0x3A:
001252 0da5      	ADD  R26,R5
001253 1db6      	ADC  R27,R6
001254 e4e6      	LDI  R30,LOW(70)
001255 940e 12b6 	CALL __EEPROMWRB
001257 9508      	RET
                 
                 ;OPTIMIZER ADDED SUBROUTINE, CALLED 40 TIMES, CODE SIZE REDUCTION:75 WORDS
                 SUBOPT_0x3B:
001258 efea      	LDI  R30,LOW(250)
001259 e0f0      	LDI  R31,HIGH(250)
00125a cf42      	RJMP SUBOPT_0x1E
                 
                 ;OPTIMIZER ADDED SUBROUTINE, CALLED 20 TIMES, CODE SIZE REDUCTION:35 WORDS
                 SUBOPT_0x3C:
00125b 940e 021f 	CALL _LOAD_LD
00125d cffa      	RJMP SUBOPT_0x3B
                 
                 ;OPTIMIZER ADDED SUBROUTINE, CALLED 26 TIMES, CODE SIZE REDUCTION:47 WORDS
                 SUBOPT_0x3D:
00125e ede0      	LDI  R30,LOW(2000)
00125f e0f7      	LDI  R31,HIGH(2000)
001260 cf3c      	RJMP SUBOPT_0x1E
                 
                 ;OPTIMIZER ADDED SUBROUTINE, CALLED 4 TIMES, CODE SIZE REDUCTION:9 WORDS
                 SUBOPT_0x3E:
001261 73ef      	ANDI R30,LOW(0x3F)
001262 68e0      	ORI  R30,0x80
001263 940e 12b6 	CALL __EEPROMWRB
001265 ce1b      	RJMP SUBOPT_0x0
                 
                 ;OPTIMIZER ADDED SUBROUTINE, CALLED 8 TIMES, CODE SIZE REDUCTION:25 WORDS
                 SUBOPT_0x3F:
001266 7cef      	ANDI R30,LOW(0xCF)
001267 62e0      	ORI  R30,0x20
001268 940e 12b6 	CALL __EEPROMWRB
00126a cff0      	RJMP SUBOPT_0x3C
                 
                 ;OPTIMIZER ADDED SUBROUTINE, CALLED 6 TIMES, CODE SIZE REDUCTION:7 WORDS
                 SUBOPT_0x40:
00126b e1ee      	LDI  R30,LOW(30)
00126c e0f0      	LDI  R31,HIGH(30)
00126d cf2f      	RJMP SUBOPT_0x1E
                 
                 ;OPTIMIZER ADDED SUBROUTINE, CALLED 7 TIMES, CODE SIZE REDUCTION:9 WORDS
                 SUBOPT_0x41:
00126e e2ec      	LDI  R30,LOW(300)
00126f e0f1      	LDI  R31,HIGH(300)
001270 cf2c      	RJMP SUBOPT_0x1E
                 
                 ;OPTIMIZER ADDED SUBROUTINE, CALLED 6 TIMES, CODE SIZE REDUCTION:7 WORDS
                 SUBOPT_0x42:
                +
001271 e1ed     +LDI R30 , LOW ( 2 * _0x0 + ( 583 ) )
001272 e0f3     +LDI R31 , HIGH ( 2 * _0x0 + ( 583 ) )
                 	__POINTW1FN _0x0,583
001273 cf49      	RJMP SUBOPT_0x23
                 
                 ;OPTIMIZER ADDED SUBROUTINE, CALLED 6 TIMES, CODE SIZE REDUCTION:7 WORDS
                 SUBOPT_0x43:
001274 93ea      	ST   -Y,R30
001275 940e 069c 	CALL _WRITE_NUMBER
001277 30e0      	CPI  R30,0
001278 9508      	RET
                 
                 ;OPTIMIZER ADDED SUBROUTINE, CALLED 16 TIMES, CODE SIZE REDUCTION:27 WORDS
                 SUBOPT_0x44:
001279 940e 021f 	CALL _LOAD_LD
00127b cfe2      	RJMP SUBOPT_0x3D
                 
                 ;OPTIMIZER ADDED SUBROUTINE, CALLED 8 TIMES, CODE SIZE REDUCTION:11 WORDS
                 SUBOPT_0x45:
00127c 7cef      	ANDI R30,LOW(0xCF)
00127d 62e0      	ORI  R30,0x20
00127e 940e 12b6 	CALL __EEPROMWRB
001280 9508      	RET
                 
                 ;OPTIMIZER ADDED SUBROUTINE, CALLED 8 TIMES, CODE SIZE REDUCTION:11 WORDS
                 SUBOPT_0x46:
001281 7cef      	ANDI R30,LOW(0xCF)
001282 61e0      	ORI  R30,0x10
001283 940e 12b6 	CALL __EEPROMWRB
001285 9508      	RET
                 
                 ;OPTIMIZER ADDED SUBROUTINE, CALLED 7 TIMES, CODE SIZE REDUCTION:9 WORDS
                 SUBOPT_0x47:
001286 7fe3      	ANDI R30,LOW(0xF3)
001287 60e8      	ORI  R30,8
001288 940e 12b6 	CALL __EEPROMWRB
00128a 9508      	RET
                 
                 ;OPTIMIZER ADDED SUBROUTINE, CALLED 4 TIMES, CODE SIZE REDUCTION:3 WORDS
                 SUBOPT_0x48:
00128b 7fe3      	ANDI R30,LOW(0xF3)
00128c 60e4      	ORI  R30,4
00128d 940e 12b6 	CALL __EEPROMWRB
00128f 9508      	RET
                 
                 ;OPTIMIZER ADDED SUBROUTINE, CALLED 7 TIMES, CODE SIZE REDUCTION:9 WORDS
                 SUBOPT_0x49:
001290 7fec      	ANDI R30,LOW(0xFC)
001291 60e2      	ORI  R30,2
001292 940e 12b6 	CALL __EEPROMWRB
001294 9508      	RET
                 
                 ;OPTIMIZER ADDED SUBROUTINE, CALLED 5 TIMES, CODE SIZE REDUCTION:5 WORDS
                 SUBOPT_0x4A:
001295 7fec      	ANDI R30,LOW(0xFC)
001296 60e1      	ORI  R30,1
001297 940e 12b6 	CALL __EEPROMWRB
001299 9508      	RET
                 
                 
                 	.CSEG
                 _delay_ms:
00129a 91e9      	ld   r30,y+
00129b 91f9      	ld   r31,y+
00129c 9630      	adiw r30,0
00129d f039      	breq __delay_ms1
                 __delay_ms0:
                +
00129e e383     +LDI R24 , LOW ( 0x733 )
00129f e097     +LDI R25 , HIGH ( 0x733 )
                +__DELAY_USW_LOOP :
0012a0 9701     +SBIW R24 , 1
0012a1 f7f1     +BRNE __DELAY_USW_LOOP
                 	__DELAY_USW 0x733
0012a2 95a8      	wdr
0012a3 9731      	sbiw r30,1
0012a4 f7c9      	brne __delay_ms0
                 __delay_ms1:
0012a5 9508      	ret
                 
                 __GETW1PF:
0012a6 9005      	LPM  R0,Z+
0012a7 91f4      	LPM  R31,Z
0012a8 2de0      	MOV  R30,R0
0012a9 9508      	RET
                 
                 __EEPROMRDB:
0012aa 99f9      	SBIC EECR,EEWE
0012ab cffe      	RJMP __EEPROMRDB
0012ac 93ff      	PUSH R31
0012ad b7ff      	IN   R31,SREG
0012ae 94f8      	CLI
0012af bda1      	OUT  EEARL,R26
0012b0 bdb2      	OUT  EEARH,R27
0012b1 9af8      	SBI  EECR,EERE
0012b2 b5e0      	IN   R30,EEDR
0012b3 bfff      	OUT  SREG,R31
0012b4 91ff      	POP  R31
0012b5 9508      	RET
                 
                 __EEPROMWRB:
0012b6 9bf9      	SBIS EECR,EEWE
0012b7 c002      	RJMP __EEPROMWRB1
0012b8 95a8      	WDR
0012b9 cffc      	RJMP __EEPROMWRB
                 __EEPROMWRB1:
0012ba b79f      	IN   R25,SREG
0012bb 94f8      	CLI
0012bc bda1      	OUT  EEARL,R26
0012bd bdb2      	OUT  EEARH,R27
0012be 9af8      	SBI  EECR,EERE
0012bf b580      	IN   R24,EEDR
0012c0 17e8      	CP   R30,R24
0012c1 f019      	BREQ __EEPROMWRB0
0012c2 bde0      	OUT  EEDR,R30
0012c3 9afa      	SBI  EECR,EEMWE
0012c4 9af9      	SBI  EECR,EEWE
                 __EEPROMWRB0:
0012c5 bf9f      	OUT  SREG,R25
0012c6 9508      	RET
                 
                 __SAVELOCR4:
0012c7 933a      	ST   -Y,R19
                 __SAVELOCR3:
0012c8 932a      	ST   -Y,R18
                 __SAVELOCR2:
0012c9 931a      	ST   -Y,R17
0012ca 930a      	ST   -Y,R16
0012cb 9508      	RET
                 
                 __LOADLOCR4:
0012cc 813b      	LDD  R19,Y+3
                 __LOADLOCR3:
0012cd 812a      	LDD  R18,Y+2
                 __LOADLOCR2:
0012ce 8119      	LDD  R17,Y+1
0012cf 8108      	LD   R16,Y
0012d0 9508      	RET
                 
                 ;END OF CODE MARKER
                 __END_OF_CODE:


RESOURCE USE INFORMATION
------------------------

Notice:
The register and instruction counts are symbol table hit counts,
and hence implicitly used resources are not counted, eg, the
'lpm' instruction without operands implicitly uses r0 and z,
none of which are counted.

x,y,z are separate entities in the symbol table and are
counted separately from r26..r31 here.

.dseg memory usage only counts static data declared with .byte

ATmega164PV register use summary:
r0 :  20 r1 :   3 r2 :   0 r3 :   3 r4 :   3 r5 :  94 r6 :  93 r7 :  74 
r8 :  60 r9 :  23 r10:  23 r11:   0 r12:   0 r13:   0 r14:   0 r15:   2 
r16:  11 r17:  50 r18:  11 r19:   9 r20:   0 r21:   0 r22:   9 r23:   8 
r24:  21 r25:   7 r26: 174 r27:  79 r28:  18 r29:   1 r30: 964 r31: 249 
x  :  17 y  : 247 z  :  16 
Registers used: 28 out of 35 (80.0%)

ATmega164PV instruction use summary:
.lds  :   0 .lds.l:   0 .sts  :   0 .sts.l:   0 adc   :  11 add   :  11 
adiw  :  21 and   :   0 andi  :  85 asr   :   1 bclr  :   0 bld   :   0 
brbc  :   0 brbs  :   0 brcc  :   0 brcs  :   0 break :   0 breq  :  86 
brge  :   0 brhc  :   0 brhs  :   0 brid  :   0 brie  :   0 brlo  :   0 
brlt  :   0 brmi  :   0 brne  : 131 brpl  :   0 brsh  :  77 brtc  :   0 
brts  :   0 brvc  :   0 brvs  :   0 bset  :   0 bst   :   0 call  : 845 
cbi   :  17 cbr   :   1 clc   :   0 clh   :   0 cli   :   4 cln   :   0 
clr   : 158 cls   :   0 clt   :   0 clv   :   0 clz   :   0 com   :   0 
cp    :  61 cpc   :  45 cpi   : 115 cpse  :   0 dec   :   3 des   :   0 
eor   :   0 fmul  :   0 fmuls :   0 fmulsu:   0 icall :   0 ijmp  :   0 
in    :  47 inc   :  20 jmp   :  75 ld    :  50 ldd   :  24 ldi   : 538 
lds   :   3 lpm   :  16 lsl   :   1 lsr   :   0 mov   : 109 movw  :  21 
mul   :   0 muls  :   0 mulsu :   0 neg   :   0 nop   :   0 or    :   3 
ori   :  38 out   :  37 pop   :   3 push  :   3 rcall :  46 ret   :  71 
reti  :   3 rjmp  : 259 rol   :   1 ror   :   1 sbc   :   0 sbci  :  25 
sbi   :  23 sbic  :  10 sbis  :   3 sbiw  :  30 sbr   :   0 sbrc  :   0 
sbrs  :   0 sec   :   0 seh   :   0 sei   :  23 sen   :   0 ser   :   0 
ses   :   0 set   :   0 sev   :   0 sez   :   0 sleep :   0 spm   :   0 
st    : 180 std   :  14 sts   :  45 sub   :   0 subi  :  26 swap  :   0 
tst   :   5 wdr   :   3 
Instructions used: 51 out of 116 (44.0%)

ATmega164PV memory use summary [bytes]:
Segment   Begin    End      Code   Data   Used    Size   Use%
---------------------------------------------------------------
[.cseg] 0x000000 0x0025a2   8784    850   9634   16384  58.8%
[.dseg] 0x000100 0x0004b7      0    695    695    1279  54.3%
[.eseg] 0x000000 0x000166      0    358    358     512  69.9%

Assembly complete, 0 errors, 9 warnings
