
AVRASM ver. 2.1.30  E:\AVR\SD-WC\List\SD-WC.asm Sun Apr 01 23:24:48 2012

E:\AVR\SD-WC\List\SD-WC.asm(1057): warning: Register r5 already defined by the .DEF directive
E:\AVR\SD-WC\List\SD-WC.asm(1058): warning: Register r6 already defined by the .DEF directive
E:\AVR\SD-WC\List\SD-WC.asm(1059): warning: Register r4 already defined by the .DEF directive
E:\AVR\SD-WC\List\SD-WC.asm(1060): warning: Register r9 already defined by the .DEF directive
E:\AVR\SD-WC\List\SD-WC.asm(1061): warning: Register r10 already defined by the .DEF directive
                 
                 
                 ;CodeVisionAVR C Compiler V2.05.0 Professional
                 ;(C) Copyright 1998-2010 Pavel Haiduc, HP InfoTech s.r.l.
                 ;http://www.hpinfotech.com
                 
                 ;Chip type                : ATmega8L
                 ;Program type             : Application
                 ;Clock frequency          : 3,686400 MHz
                 ;Memory model             : Small
                 ;Optimize for             : Size
                 ;(s)printf features       : int, width
                 ;(s)scanf features        : int, width
                 ;External RAM size        : 0
                 ;Data Stack size          : 256 byte(s)
                 ;Heap size                : 0 byte(s)
                 ;Promote 'char' to 'int'  : Yes
                 ;'char' is unsigned       : Yes
                 ;8 bit enums              : Yes
                 ;global 'const' stored in FLASH: Yes
                 ;Enhanced core instructions    : On
                 ;Smart register allocation     : On
                 ;Automatic register allocation : On
                 
                 	#pragma AVRPART ADMIN PART_NAME ATmega8L
                 	#pragma AVRPART MEMORY PROG_FLASH 8192
                 	#pragma AVRPART MEMORY EEPROM 512
                 	#pragma AVRPART MEMORY INT_SRAM SIZE 1119
                 	#pragma AVRPART MEMORY INT_SRAM START_ADDR 0x60
                 
                 	.LISTMAC
                 	.EQU UDRE=0x5
                 	.EQU RXC=0x7
                 	.EQU USR=0xB
                 	.EQU UDR=0xC
                 	.EQU SPSR=0xE
                 	.EQU SPDR=0xF
                 	.EQU EERE=0x0
                 	.EQU EEWE=0x1
                 	.EQU EEMWE=0x2
                 	.EQU EECR=0x1C
                 	.EQU EEDR=0x1D
                 	.EQU EEARL=0x1E
                 	.EQU EEARH=0x1F
                 	.EQU WDTCR=0x21
                 	.EQU MCUCR=0x35
                 	.EQU GICR=0x3B
                 	.EQU SPL=0x3D
                 	.EQU SPH=0x3E
                 	.EQU SREG=0x3F
                 
                 	.DEF R0X0=R0
                 	.DEF R0X1=R1
                 	.DEF R0X2=R2
                 	.DEF R0X3=R3
                 	.DEF R0X4=R4
                 	.DEF R0X5=R5
                 	.DEF R0X6=R6
                 	.DEF R0X7=R7
                 	.DEF R0X8=R8
                 	.DEF R0X9=R9
                 	.DEF R0XA=R10
                 	.DEF R0XB=R11
                 	.DEF R0XC=R12
                 	.DEF R0XD=R13
                 	.DEF R0XE=R14
                 	.DEF R0XF=R15
                 	.DEF R0X10=R16
                 	.DEF R0X11=R17
                 	.DEF R0X12=R18
                 	.DEF R0X13=R19
                 	.DEF R0X14=R20
                 	.DEF R0X15=R21
                 	.DEF R0X16=R22
                 	.DEF R0X17=R23
                 	.DEF R0X18=R24
                 	.DEF R0X19=R25
                 	.DEF R0X1A=R26
                 	.DEF R0X1B=R27
                 	.DEF R0X1C=R28
                 	.DEF R0X1D=R29
                 	.DEF R0X1E=R30
                 	.DEF R0X1F=R31
                 
                 	.EQU __SRAM_START=0x0060
                 	.EQU __SRAM_END=0x045F
                 	.EQU __DSTACK_SIZE=0x0100
                 	.EQU __HEAP_SIZE=0x0000
                 	.EQU __CLEAR_SRAM_SIZE=__SRAM_END-__SRAM_START+1
                 
                 	.MACRO __CPD1N
                 	CPI  R30,LOW(@0)
                 	LDI  R26,HIGH(@0)
                 	CPC  R31,R26
                 	LDI  R26,BYTE3(@0)
                 	CPC  R22,R26
                 	LDI  R26,BYTE4(@0)
                 	CPC  R23,R26
                 	.ENDM
                 
                 	.MACRO __CPD2N
                 	CPI  R26,LOW(@0)
                 	LDI  R30,HIGH(@0)
                 	CPC  R27,R30
                 	LDI  R30,BYTE3(@0)
                 	CPC  R24,R30
                 	LDI  R30,BYTE4(@0)
                 	CPC  R25,R30
                 	.ENDM
                 
                 	.MACRO __CPWRR
                 	CP   R@0,R@2
                 	CPC  R@1,R@3
                 	.ENDM
                 
                 	.MACRO __CPWRN
                 	CPI  R@0,LOW(@2)
                 	LDI  R30,HIGH(@2)
                 	CPC  R@1,R30
                 	.ENDM
                 
                 	.MACRO __ADDB1MN
                 	SUBI R30,LOW(-@0-(@1))
                 	.ENDM
                 
                 	.MACRO __ADDB2MN
                 	SUBI R26,LOW(-@0-(@1))
                 	.ENDM
                 
                 	.MACRO __ADDW1MN
                 	SUBI R30,LOW(-@0-(@1))
                 	SBCI R31,HIGH(-@0-(@1))
                 	.ENDM
                 
                 	.MACRO __ADDW2MN
                 	SUBI R26,LOW(-@0-(@1))
                 	SBCI R27,HIGH(-@0-(@1))
                 	.ENDM
                 
                 	.MACRO __ADDW1FN
                 	SUBI R30,LOW(-2*@0-(@1))
                 	SBCI R31,HIGH(-2*@0-(@1))
                 	.ENDM
                 
                 	.MACRO __ADDD1FN
                 	SUBI R30,LOW(-2*@0-(@1))
                 	SBCI R31,HIGH(-2*@0-(@1))
                 	SBCI R22,BYTE3(-2*@0-(@1))
                 	.ENDM
                 
                 	.MACRO __ADDD1N
                 	SUBI R30,LOW(-@0)
                 	SBCI R31,HIGH(-@0)
                 	SBCI R22,BYTE3(-@0)
                 	SBCI R23,BYTE4(-@0)
                 	.ENDM
                 
                 	.MACRO __ADDD2N
                 	SUBI R26,LOW(-@0)
                 	SBCI R27,HIGH(-@0)
                 	SBCI R24,BYTE3(-@0)
                 	SBCI R25,BYTE4(-@0)
                 	.ENDM
                 
                 	.MACRO __SUBD1N
                 	SUBI R30,LOW(@0)
                 	SBCI R31,HIGH(@0)
                 	SBCI R22,BYTE3(@0)
                 	SBCI R23,BYTE4(@0)
                 	.ENDM
                 
                 	.MACRO __SUBD2N
                 	SUBI R26,LOW(@0)
                 	SBCI R27,HIGH(@0)
                 	SBCI R24,BYTE3(@0)
                 	SBCI R25,BYTE4(@0)
                 	.ENDM
                 
                 	.MACRO __ANDBMNN
                 	LDS  R30,@0+(@1)
                 	ANDI R30,LOW(@2)
                 	STS  @0+(@1),R30
                 	.ENDM
                 
                 	.MACRO __ANDWMNN
                 	LDS  R30,@0+(@1)
                 	ANDI R30,LOW(@2)
                 	STS  @0+(@1),R30
                 	LDS  R30,@0+(@1)+1
                 	ANDI R30,HIGH(@2)
                 	STS  @0+(@1)+1,R30
                 	.ENDM
                 
                 	.MACRO __ANDD1N
                 	ANDI R30,LOW(@0)
                 	ANDI R31,HIGH(@0)
                 	ANDI R22,BYTE3(@0)
                 	ANDI R23,BYTE4(@0)
                 	.ENDM
                 
                 	.MACRO __ANDD2N
                 	ANDI R26,LOW(@0)
                 	ANDI R27,HIGH(@0)
                 	ANDI R24,BYTE3(@0)
                 	ANDI R25,BYTE4(@0)
                 	.ENDM
                 
                 	.MACRO __ORBMNN
                 	LDS  R30,@0+(@1)
                 	ORI  R30,LOW(@2)
                 	STS  @0+(@1),R30
                 	.ENDM
                 
                 	.MACRO __ORWMNN
                 	LDS  R30,@0+(@1)
                 	ORI  R30,LOW(@2)
                 	STS  @0+(@1),R30
                 	LDS  R30,@0+(@1)+1
                 	ORI  R30,HIGH(@2)
                 	STS  @0+(@1)+1,R30
                 	.ENDM
                 
                 	.MACRO __ORD1N
                 	ORI  R30,LOW(@0)
                 	ORI  R31,HIGH(@0)
                 	ORI  R22,BYTE3(@0)
                 	ORI  R23,BYTE4(@0)
                 	.ENDM
                 
                 	.MACRO __ORD2N
                 	ORI  R26,LOW(@0)
                 	ORI  R27,HIGH(@0)
                 	ORI  R24,BYTE3(@0)
                 	ORI  R25,BYTE4(@0)
                 	.ENDM
                 
                 	.MACRO __DELAY_USB
                 	LDI  R24,LOW(@0)
                 __DELAY_USB_LOOP:
                 	DEC  R24
                 	BRNE __DELAY_USB_LOOP
                 	.ENDM
                 
                 	.MACRO __DELAY_USW
                 	LDI  R24,LOW(@0)
                 	LDI  R25,HIGH(@0)
                 __DELAY_USW_LOOP:
                 	SBIW R24,1
                 	BRNE __DELAY_USW_LOOP
                 	.ENDM
                 
                 	.MACRO __GETD1S
                 	LDD  R30,Y+@0
                 	LDD  R31,Y+@0+1
                 	LDD  R22,Y+@0+2
                 	LDD  R23,Y+@0+3
                 	.ENDM
                 
                 	.MACRO __GETD2S
                 	LDD  R26,Y+@0
                 	LDD  R27,Y+@0+1
                 	LDD  R24,Y+@0+2
                 	LDD  R25,Y+@0+3
                 	.ENDM
                 
                 	.MACRO __PUTD1S
                 	STD  Y+@0,R30
                 	STD  Y+@0+1,R31
                 	STD  Y+@0+2,R22
                 	STD  Y+@0+3,R23
                 	.ENDM
                 
                 	.MACRO __PUTD2S
                 	STD  Y+@0,R26
                 	STD  Y+@0+1,R27
                 	STD  Y+@0+2,R24
                 	STD  Y+@0+3,R25
                 	.ENDM
                 
                 	.MACRO __PUTDZ2
                 	STD  Z+@0,R26
                 	STD  Z+@0+1,R27
                 	STD  Z+@0+2,R24
                 	STD  Z+@0+3,R25
                 	.ENDM
                 
                 	.MACRO __CLRD1S
                 	STD  Y+@0,R30
                 	STD  Y+@0+1,R30
                 	STD  Y+@0+2,R30
                 	STD  Y+@0+3,R30
                 	.ENDM
                 
                 	.MACRO __POINTB1MN
                 	LDI  R30,LOW(@0+(@1))
                 	.ENDM
                 
                 	.MACRO __POINTW1MN
                 	LDI  R30,LOW(@0+(@1))
                 	LDI  R31,HIGH(@0+(@1))
                 	.ENDM
                 
                 	.MACRO __POINTD1M
                 	LDI  R30,LOW(@0)
                 	LDI  R31,HIGH(@0)
                 	LDI  R22,BYTE3(@0)
                 	LDI  R23,BYTE4(@0)
                 	.ENDM
                 
                 	.MACRO __POINTW1FN
                 	LDI  R30,LOW(2*@0+(@1))
                 	LDI  R31,HIGH(2*@0+(@1))
                 	.ENDM
                 
                 	.MACRO __POINTD1FN
                 	LDI  R30,LOW(2*@0+(@1))
                 	LDI  R31,HIGH(2*@0+(@1))
                 	LDI  R22,BYTE3(2*@0+(@1))
                 	LDI  R23,BYTE4(2*@0+(@1))
                 	.ENDM
                 
                 	.MACRO __POINTB2MN
                 	LDI  R26,LOW(@0+(@1))
                 	.ENDM
                 
                 	.MACRO __POINTW2MN
                 	LDI  R26,LOW(@0+(@1))
                 	LDI  R27,HIGH(@0+(@1))
                 	.ENDM
                 
                 	.MACRO __POINTBRM
                 	LDI  R@0,LOW(@1)
                 	.ENDM
                 
                 	.MACRO __POINTWRM
                 	LDI  R@0,LOW(@2)
                 	LDI  R@1,HIGH(@2)
                 	.ENDM
                 
                 	.MACRO __POINTBRMN
                 	LDI  R@0,LOW(@1+(@2))
                 	.ENDM
                 
                 	.MACRO __POINTWRMN
                 	LDI  R@0,LOW(@2+(@3))
                 	LDI  R@1,HIGH(@2+(@3))
                 	.ENDM
                 
                 	.MACRO __POINTWRFN
                 	LDI  R@0,LOW(@2*2+(@3))
                 	LDI  R@1,HIGH(@2*2+(@3))
                 	.ENDM
                 
                 	.MACRO __GETD1N
                 	LDI  R30,LOW(@0)
                 	LDI  R31,HIGH(@0)
                 	LDI  R22,BYTE3(@0)
                 	LDI  R23,BYTE4(@0)
                 	.ENDM
                 
                 	.MACRO __GETD2N
                 	LDI  R26,LOW(@0)
                 	LDI  R27,HIGH(@0)
                 	LDI  R24,BYTE3(@0)
                 	LDI  R25,BYTE4(@0)
                 	.ENDM
                 
                 	.MACRO __GETB1MN
                 	LDS  R30,@0+(@1)
                 	.ENDM
                 
                 	.MACRO __GETB1HMN
                 	LDS  R31,@0+(@1)
                 	.ENDM
                 
                 	.MACRO __GETW1MN
                 	LDS  R30,@0+(@1)
                 	LDS  R31,@0+(@1)+1
                 	.ENDM
                 
                 	.MACRO __GETD1MN
                 	LDS  R30,@0+(@1)
                 	LDS  R31,@0+(@1)+1
                 	LDS  R22,@0+(@1)+2
                 	LDS  R23,@0+(@1)+3
                 	.ENDM
                 
                 	.MACRO __GETBRMN
                 	LDS  R@0,@1+(@2)
                 	.ENDM
                 
                 	.MACRO __GETWRMN
                 	LDS  R@0,@2+(@3)
                 	LDS  R@1,@2+(@3)+1
                 	.ENDM
                 
                 	.MACRO __GETWRZ
                 	LDD  R@0,Z+@2
                 	LDD  R@1,Z+@2+1
                 	.ENDM
                 
                 	.MACRO __GETD2Z
                 	LDD  R26,Z+@0
                 	LDD  R27,Z+@0+1
                 	LDD  R24,Z+@0+2
                 	LDD  R25,Z+@0+3
                 	.ENDM
                 
                 	.MACRO __GETB2MN
                 	LDS  R26,@0+(@1)
                 	.ENDM
                 
                 	.MACRO __GETW2MN
                 	LDS  R26,@0+(@1)
                 	LDS  R27,@0+(@1)+1
                 	.ENDM
                 
                 	.MACRO __GETD2MN
                 	LDS  R26,@0+(@1)
                 	LDS  R27,@0+(@1)+1
                 	LDS  R24,@0+(@1)+2
                 	LDS  R25,@0+(@1)+3
                 	.ENDM
                 
                 	.MACRO __PUTB1MN
                 	STS  @0+(@1),R30
                 	.ENDM
                 
                 	.MACRO __PUTW1MN
                 	STS  @0+(@1),R30
                 	STS  @0+(@1)+1,R31
                 	.ENDM
                 
                 	.MACRO __PUTD1MN
                 	STS  @0+(@1),R30
                 	STS  @0+(@1)+1,R31
                 	STS  @0+(@1)+2,R22
                 	STS  @0+(@1)+3,R23
                 	.ENDM
                 
                 	.MACRO __PUTB1EN
                 	LDI  R26,LOW(@0+(@1))
                 	LDI  R27,HIGH(@0+(@1))
                 	RCALL __EEPROMWRB
                 	.ENDM
                 
                 	.MACRO __PUTW1EN
                 	LDI  R26,LOW(@0+(@1))
                 	LDI  R27,HIGH(@0+(@1))
                 	RCALL __EEPROMWRW
                 	.ENDM
                 
                 	.MACRO __PUTD1EN
                 	LDI  R26,LOW(@0+(@1))
                 	LDI  R27,HIGH(@0+(@1))
                 	RCALL __EEPROMWRD
                 	.ENDM
                 
                 	.MACRO __PUTBR0MN
                 	STS  @0+(@1),R0
                 	.ENDM
                 
                 	.MACRO __PUTBMRN
                 	STS  @0+(@1),R@2
                 	.ENDM
                 
                 	.MACRO __PUTWMRN
                 	STS  @0+(@1),R@2
                 	STS  @0+(@1)+1,R@3
                 	.ENDM
                 
                 	.MACRO __PUTBZR
                 	STD  Z+@1,R@0
                 	.ENDM
                 
                 	.MACRO __PUTWZR
                 	STD  Z+@2,R@0
                 	STD  Z+@2+1,R@1
                 	.ENDM
                 
                 	.MACRO __GETW1R
                 	MOV  R30,R@0
                 	MOV  R31,R@1
                 	.ENDM
                 
                 	.MACRO __GETW2R
                 	MOV  R26,R@0
                 	MOV  R27,R@1
                 	.ENDM
                 
                 	.MACRO __GETWRN
                 	LDI  R@0,LOW(@2)
                 	LDI  R@1,HIGH(@2)
                 	.ENDM
                 
                 	.MACRO __PUTW1R
                 	MOV  R@0,R30
                 	MOV  R@1,R31
                 	.ENDM
                 
                 	.MACRO __PUTW2R
                 	MOV  R@0,R26
                 	MOV  R@1,R27
                 	.ENDM
                 
                 	.MACRO __ADDWRN
                 	SUBI R@0,LOW(-@2)
                 	SBCI R@1,HIGH(-@2)
                 	.ENDM
                 
                 	.MACRO __ADDWRR
                 	ADD  R@0,R@2
                 	ADC  R@1,R@3
                 	.ENDM
                 
                 	.MACRO __SUBWRN
                 	SUBI R@0,LOW(@2)
                 	SBCI R@1,HIGH(@2)
                 	.ENDM
                 
                 	.MACRO __SUBWRR
                 	SUB  R@0,R@2
                 	SBC  R@1,R@3
                 	.ENDM
                 
                 	.MACRO __ANDWRN
                 	ANDI R@0,LOW(@2)
                 	ANDI R@1,HIGH(@2)
                 	.ENDM
                 
                 	.MACRO __ANDWRR
                 	AND  R@0,R@2
                 	AND  R@1,R@3
                 	.ENDM
                 
                 	.MACRO __ORWRN
                 	ORI  R@0,LOW(@2)
                 	ORI  R@1,HIGH(@2)
                 	.ENDM
                 
                 	.MACRO __ORWRR
                 	OR   R@0,R@2
                 	OR   R@1,R@3
                 	.ENDM
                 
                 	.MACRO __EORWRR
                 	EOR  R@0,R@2
                 	EOR  R@1,R@3
                 	.ENDM
                 
                 	.MACRO __GETWRS
                 	LDD  R@0,Y+@2
                 	LDD  R@1,Y+@2+1
                 	.ENDM
                 
                 	.MACRO __PUTBSR
                 	STD  Y+@1,R@0
                 	.ENDM
                 
                 	.MACRO __PUTWSR
                 	STD  Y+@2,R@0
                 	STD  Y+@2+1,R@1
                 	.ENDM
                 
                 	.MACRO __MOVEWRR
                 	MOV  R@0,R@2
                 	MOV  R@1,R@3
                 	.ENDM
                 
                 	.MACRO __INWR
                 	IN   R@0,@2
                 	IN   R@1,@2+1
                 	.ENDM
                 
                 	.MACRO __OUTWR
                 	OUT  @2+1,R@1
                 	OUT  @2,R@0
                 	.ENDM
                 
                 	.MACRO __CALL1MN
                 	LDS  R30,@0+(@1)
                 	LDS  R31,@0+(@1)+1
                 	ICALL
                 	.ENDM
                 
                 	.MACRO __CALL1FN
                 	LDI  R30,LOW(2*@0+(@1))
                 	LDI  R31,HIGH(2*@0+(@1))
                 	RCALL __GETW1PF
                 	ICALL
                 	.ENDM
                 
                 	.MACRO __CALL2EN
                 	LDI  R26,LOW(@0+(@1))
                 	LDI  R27,HIGH(@0+(@1))
                 	RCALL __EEPROMRDW
                 	ICALL
                 	.ENDM
                 
                 	.MACRO __GETW1STACK
                 	IN   R26,SPL
                 	IN   R27,SPH
                 	ADIW R26,@0+1
                 	LD   R30,X+
                 	LD   R31,X
                 	.ENDM
                 
                 	.MACRO __GETD1STACK
                 	IN   R26,SPL
                 	IN   R27,SPH
                 	ADIW R26,@0+1
                 	LD   R30,X+
                 	LD   R31,X+
                 	LD   R22,X
                 	.ENDM
                 
                 	.MACRO __NBST
                 	BST  R@0,@1
                 	IN   R30,SREG
                 	LDI  R31,0x40
                 	EOR  R30,R31
                 	OUT  SREG,R30
                 	.ENDM
                 
                 
                 	.MACRO __PUTB1SN
                 	LDD  R26,Y+@0
                 	LDD  R27,Y+@0+1
                 	SUBI R26,LOW(-@1)
                 	SBCI R27,HIGH(-@1)
                 	ST   X,R30
                 	.ENDM
                 
                 	.MACRO __PUTW1SN
                 	LDD  R26,Y+@0
                 	LDD  R27,Y+@0+1
                 	SUBI R26,LOW(-@1)
                 	SBCI R27,HIGH(-@1)
                 	ST   X+,R30
                 	ST   X,R31
                 	.ENDM
                 
                 	.MACRO __PUTD1SN
                 	LDD  R26,Y+@0
                 	LDD  R27,Y+@0+1
                 	SUBI R26,LOW(-@1)
                 	SBCI R27,HIGH(-@1)
                 	RCALL __PUTDP1
                 	.ENDM
                 
                 	.MACRO __PUTB1SNS
                 	LDD  R26,Y+@0
                 	LDD  R27,Y+@0+1
                 	ADIW R26,@1
                 	ST   X,R30
                 	.ENDM
                 
                 	.MACRO __PUTW1SNS
                 	LDD  R26,Y+@0
                 	LDD  R27,Y+@0+1
                 	ADIW R26,@1
                 	ST   X+,R30
                 	ST   X,R31
                 	.ENDM
                 
                 	.MACRO __PUTD1SNS
                 	LDD  R26,Y+@0
                 	LDD  R27,Y+@0+1
                 	ADIW R26,@1
                 	RCALL __PUTDP1
                 	.ENDM
                 
                 	.MACRO __PUTB1PMN
                 	LDS  R26,@0
                 	LDS  R27,@0+1
                 	SUBI R26,LOW(-@1)
                 	SBCI R27,HIGH(-@1)
                 	ST   X,R30
                 	.ENDM
                 
                 	.MACRO __PUTW1PMN
                 	LDS  R26,@0
                 	LDS  R27,@0+1
                 	SUBI R26,LOW(-@1)
                 	SBCI R27,HIGH(-@1)
                 	ST   X+,R30
                 	ST   X,R31
                 	.ENDM
                 
                 	.MACRO __PUTD1PMN
                 	LDS  R26,@0
                 	LDS  R27,@0+1
                 	SUBI R26,LOW(-@1)
                 	SBCI R27,HIGH(-@1)
                 	RCALL __PUTDP1
                 	.ENDM
                 
                 	.MACRO __PUTB1PMNS
                 	LDS  R26,@0
                 	LDS  R27,@0+1
                 	ADIW R26,@1
                 	ST   X,R30
                 	.ENDM
                 
                 	.MACRO __PUTW1PMNS
                 	LDS  R26,@0
                 	LDS  R27,@0+1
                 	ADIW R26,@1
                 	ST   X+,R30
                 	ST   X,R31
                 	.ENDM
                 
                 	.MACRO __PUTD1PMNS
                 	LDS  R26,@0
                 	LDS  R27,@0+1
                 	ADIW R26,@1
                 	RCALL __PUTDP1
                 	.ENDM
                 
                 	.MACRO __PUTB1RN
                 	MOVW R26,R@0
                 	SUBI R26,LOW(-@1)
                 	SBCI R27,HIGH(-@1)
                 	ST   X,R30
                 	.ENDM
                 
                 	.MACRO __PUTW1RN
                 	MOVW R26,R@0
                 	SUBI R26,LOW(-@1)
                 	SBCI R27,HIGH(-@1)
                 	ST   X+,R30
                 	ST   X,R31
                 	.ENDM
                 
                 	.MACRO __PUTD1RN
                 	MOVW R26,R@0
                 	SUBI R26,LOW(-@1)
                 	SBCI R27,HIGH(-@1)
                 	RCALL __PUTDP1
                 	.ENDM
                 
                 	.MACRO __PUTB1RNS
                 	MOVW R26,R@0
                 	ADIW R26,@1
                 	ST   X,R30
                 	.ENDM
                 
                 	.MACRO __PUTW1RNS
                 	MOVW R26,R@0
                 	ADIW R26,@1
                 	ST   X+,R30
                 	ST   X,R31
                 	.ENDM
                 
                 	.MACRO __PUTD1RNS
                 	MOVW R26,R@0
                 	ADIW R26,@1
                 	RCALL __PUTDP1
                 	.ENDM
                 
                 	.MACRO __PUTB1RON
                 	MOV  R26,R@0
                 	MOV  R27,R@1
                 	SUBI R26,LOW(-@2)
                 	SBCI R27,HIGH(-@2)
                 	ST   X,R30
                 	.ENDM
                 
                 	.MACRO __PUTW1RON
                 	MOV  R26,R@0
                 	MOV  R27,R@1
                 	SUBI R26,LOW(-@2)
                 	SBCI R27,HIGH(-@2)
                 	ST   X+,R30
                 	ST   X,R31
                 	.ENDM
                 
                 	.MACRO __PUTD1RON
                 	MOV  R26,R@0
                 	MOV  R27,R@1
                 	SUBI R26,LOW(-@2)
                 	SBCI R27,HIGH(-@2)
                 	RCALL __PUTDP1
                 	.ENDM
                 
                 	.MACRO __PUTB1RONS
                 	MOV  R26,R@0
                 	MOV  R27,R@1
                 	ADIW R26,@2
                 	ST   X,R30
                 	.ENDM
                 
                 	.MACRO __PUTW1RONS
                 	MOV  R26,R@0
                 	MOV  R27,R@1
                 	ADIW R26,@2
                 	ST   X+,R30
                 	ST   X,R31
                 	.ENDM
                 
                 	.MACRO __PUTD1RONS
                 	MOV  R26,R@0
                 	MOV  R27,R@1
                 	ADIW R26,@2
                 	RCALL __PUTDP1
                 	.ENDM
                 
                 
                 	.MACRO __GETB1SX
                 	MOVW R30,R28
                 	SUBI R30,LOW(-@0)
                 	SBCI R31,HIGH(-@0)
                 	LD   R30,Z
                 	.ENDM
                 
                 	.MACRO __GETB1HSX
                 	MOVW R30,R28
                 	SUBI R30,LOW(-@0)
                 	SBCI R31,HIGH(-@0)
                 	LD   R31,Z
                 	.ENDM
                 
                 	.MACRO __GETW1SX
                 	MOVW R30,R28
                 	SUBI R30,LOW(-@0)
                 	SBCI R31,HIGH(-@0)
                 	LD   R0,Z+
                 	LD   R31,Z
                 	MOV  R30,R0
                 	.ENDM
                 
                 	.MACRO __GETD1SX
                 	MOVW R30,R28
                 	SUBI R30,LOW(-@0)
                 	SBCI R31,HIGH(-@0)
                 	LD   R0,Z+
                 	LD   R1,Z+
                 	LD   R22,Z+
                 	LD   R23,Z
                 	MOVW R30,R0
                 	.ENDM
                 
                 	.MACRO __GETB2SX
                 	MOVW R26,R28
                 	SUBI R26,LOW(-@0)
                 	SBCI R27,HIGH(-@0)
                 	LD   R26,X
                 	.ENDM
                 
                 	.MACRO __GETW2SX
                 	MOVW R26,R28
                 	SUBI R26,LOW(-@0)
                 	SBCI R27,HIGH(-@0)
                 	LD   R0,X+
                 	LD   R27,X
                 	MOV  R26,R0
                 	.ENDM
                 
                 	.MACRO __GETD2SX
                 	MOVW R26,R28
                 	SUBI R26,LOW(-@0)
                 	SBCI R27,HIGH(-@0)
                 	LD   R0,X+
                 	LD   R1,X+
                 	LD   R24,X+
                 	LD   R25,X
                 	MOVW R26,R0
                 	.ENDM
                 
                 	.MACRO __GETBRSX
                 	MOVW R30,R28
                 	SUBI R30,LOW(-@1)
                 	SBCI R31,HIGH(-@1)
                 	LD   R@0,Z
                 	.ENDM
                 
                 	.MACRO __GETWRSX
                 	MOVW R30,R28
                 	SUBI R30,LOW(-@2)
                 	SBCI R31,HIGH(-@2)
                 	LD   R@0,Z+
                 	LD   R@1,Z
                 	.ENDM
                 
                 	.MACRO __GETBRSX2
                 	MOVW R26,R28
                 	SUBI R26,LOW(-@1)
                 	SBCI R27,HIGH(-@1)
                 	LD   R@0,X
                 	.ENDM
                 
                 	.MACRO __GETWRSX2
                 	MOVW R26,R28
                 	SUBI R26,LOW(-@2)
                 	SBCI R27,HIGH(-@2)
                 	LD   R@0,X+
                 	LD   R@1,X
                 	.ENDM
                 
                 	.MACRO __LSLW8SX
                 	MOVW R30,R28
                 	SUBI R30,LOW(-@0)
                 	SBCI R31,HIGH(-@0)
                 	LD   R31,Z
                 	CLR  R30
                 	.ENDM
                 
                 	.MACRO __PUTB1SX
                 	MOVW R26,R28
                 	SUBI R26,LOW(-@0)
                 	SBCI R27,HIGH(-@0)
                 	ST   X,R30
                 	.ENDM
                 
                 	.MACRO __PUTW1SX
                 	MOVW R26,R28
                 	SUBI R26,LOW(-@0)
                 	SBCI R27,HIGH(-@0)
                 	ST   X+,R30
                 	ST   X,R31
                 	.ENDM
                 
                 	.MACRO __PUTD1SX
                 	MOVW R26,R28
                 	SUBI R26,LOW(-@0)
                 	SBCI R27,HIGH(-@0)
                 	ST   X+,R30
                 	ST   X+,R31
                 	ST   X+,R22
                 	ST   X,R23
                 	.ENDM
                 
                 	.MACRO __CLRW1SX
                 	MOVW R26,R28
                 	SUBI R26,LOW(-@0)
                 	SBCI R27,HIGH(-@0)
                 	ST   X+,R30
                 	ST   X,R30
                 	.ENDM
                 
                 	.MACRO __CLRD1SX
                 	MOVW R26,R28
                 	SUBI R26,LOW(-@0)
                 	SBCI R27,HIGH(-@0)
                 	ST   X+,R30
                 	ST   X+,R30
                 	ST   X+,R30
                 	ST   X,R30
                 	.ENDM
                 
                 	.MACRO __PUTB2SX
                 	MOVW R30,R28
                 	SUBI R30,LOW(-@0)
                 	SBCI R31,HIGH(-@0)
                 	ST   Z,R26
                 	.ENDM
                 
                 	.MACRO __PUTW2SX
                 	MOVW R30,R28
                 	SUBI R30,LOW(-@0)
                 	SBCI R31,HIGH(-@0)
                 	ST   Z+,R26
                 	ST   Z,R27
                 	.ENDM
                 
                 	.MACRO __PUTD2SX
                 	MOVW R30,R28
                 	SUBI R30,LOW(-@0)
                 	SBCI R31,HIGH(-@0)
                 	ST   Z+,R26
                 	ST   Z+,R27
                 	ST   Z+,R24
                 	ST   Z,R25
                 	.ENDM
                 
                 	.MACRO __PUTBSRX
                 	MOVW R30,R28
                 	SUBI R30,LOW(-@1)
                 	SBCI R31,HIGH(-@1)
                 	ST   Z,R@0
                 	.ENDM
                 
                 	.MACRO __PUTWSRX
                 	MOVW R30,R28
                 	SUBI R30,LOW(-@2)
                 	SBCI R31,HIGH(-@2)
                 	ST   Z+,R@0
                 	ST   Z,R@1
                 	.ENDM
                 
                 	.MACRO __PUTB1SNX
                 	MOVW R26,R28
                 	SUBI R26,LOW(-@0)
                 	SBCI R27,HIGH(-@0)
                 	LD   R0,X+
                 	LD   R27,X
                 	MOV  R26,R0
                 	SUBI R26,LOW(-@1)
                 	SBCI R27,HIGH(-@1)
                 	ST   X,R30
                 	.ENDM
                 
                 	.MACRO __PUTW1SNX
                 	MOVW R26,R28
                 	SUBI R26,LOW(-@0)
                 	SBCI R27,HIGH(-@0)
                 	LD   R0,X+
                 	LD   R27,X
                 	MOV  R26,R0
                 	SUBI R26,LOW(-@1)
                 	SBCI R27,HIGH(-@1)
                 	ST   X+,R30
                 	ST   X,R31
                 	.ENDM
                 
                 	.MACRO __PUTD1SNX
                 	MOVW R26,R28
                 	SUBI R26,LOW(-@0)
                 	SBCI R27,HIGH(-@0)
                 	LD   R0,X+
                 	LD   R27,X
                 	MOV  R26,R0
                 	SUBI R26,LOW(-@1)
                 	SBCI R27,HIGH(-@1)
                 	ST   X+,R30
                 	ST   X+,R31
                 	ST   X+,R22
                 	ST   X,R23
                 	.ENDM
                 
                 	.MACRO __MULBRR
                 	MULS R@0,R@1
                 	MOVW R30,R0
                 	.ENDM
                 
                 	.MACRO __MULBRRU
                 	MUL  R@0,R@1
                 	MOVW R30,R0
                 	.ENDM
                 
                 	.MACRO __MULBRR0
                 	MULS R@0,R@1
                 	.ENDM
                 
                 	.MACRO __MULBRRU0
                 	MUL  R@0,R@1
                 	.ENDM
                 
                 	.MACRO __MULBNWRU
                 	LDI  R26,@2
                 	MUL  R26,R@0
                 	MOVW R30,R0
                 	MUL  R26,R@1
                 	ADD  R31,R0
                 	.ENDM
                 
                 ;NAME DEFINITIONS FOR GLOBAL VARIABLES ALLOCATED TO REGISTERS
                 	.DEF _z=R5
                 	.DEF _i=R6
                 	.DEF _pktlen=R4
                 	.DEF _Error=R9
                 	.DEF _rx_wr_index=R10
                 
                 	.CSEG
                 	.ORG 0x00
                 
                 ;START OF CODE MARKER
                 __START_OF_CODE:
                 
                 ;INTERRUPT VECTORS
000000 c0fb      	RJMP __RESET
000001 cffe      	RJMP 0x00
000002 c337      	RJMP _ext_int1_isr
000003 cffc      	RJMP 0x00
000004 cffb      	RJMP 0x00
000005 cffa      	RJMP 0x00
000006 cff9      	RJMP 0x00
000007 cff8      	RJMP 0x00
000008 c380      	RJMP _timer1_ovf_isr
000009 cff6      	RJMP 0x00
00000a cff5      	RJMP 0x00
00000b c361      	RJMP _usart_rx_isr
00000c cff3      	RJMP 0x00
00000d cff2      	RJMP 0x00
00000e cff1      	RJMP 0x00
00000f cff0      	RJMP 0x00
000010 cfef      	RJMP 0x00
000011 cfee      	RJMP 0x00
000012 cfed      	RJMP 0x00
                 
                 _tbl_frame:
000013 9830
000014 3190
000015 8fff
000016 8032      	.DB  0x30,0x98,0x90,0x31,0xFF,0x8F,0x32,0x80
000017 3328
000018 5680
000019 4e34
00001a 35f6      	.DB  0x28,0x33,0x80,0x56,0x34,0x4E,0xF6,0x35
00001b f5f6
00001c 1836
00001d 375c
00001e 51d6      	.DB  0xF6,0xF5,0x36,0x18,0x5C,0x37,0xD6,0x51
00001f 4438
000020 3944
000021 00a0      	.DB  0x38,0x44,0x44,0x39,0xA0,0x0
                 _tbl_rfinit:
000022 2109
000023 0001
000024 4d35
000025 1f02      	.DB  0x9,0x21,0x1,0x0,0x35,0x4D,0x2,0x1F
000026 0401
000027 f0bc
000028 0005
000029 07a1      	.DB  0x1,0x4,0xBC,0xF0,0x5,0x0,0xA1,0x7
00002a 4c12
00002b 8008
00002c 0c00
00002d 0080      	.DB  0x12,0x4C,0x8,0x80,0x0,0xC,0x80,0x0
00002e 160e
00002f 0f9b
000030 ad90
000031 b010      	.DB  0xE,0x16,0x9B,0xF,0x90,0xAD,0x10,0xB0
000032 1300
000033 14a1
000034 8114
000035 1691      	.DB  0x0,0x13,0xA1,0x14,0x14,0x81,0x91,0x16
000036 0200
000037 b118
000038 1940
000039 0fa8      	.DB  0x0,0x2,0x18,0xB1,0x40,0x19,0xA8,0xF
00003a 3f1a
00003b 1c04
00003c 0058      	.DB  0x1A,0x3F,0x4,0x1C,0x58,0x0
                 _tbl10_G102:
00003d 2710
00003e 03e8
00003f 0064
000040 000a      	.DB  0x10,0x27,0xE8,0x3,0x64,0x0,0xA,0x0
000041 0001      	.DB  0x1,0x0
                 _tbl16_G102:
000042 1000
000043 0100
000044 0010
000045 0001      	.DB  0x0,0x10,0x0,0x1,0x10,0x0,0x1,0x0
                 
                 _0x0:
000046 222c
000047 372b
000048 4100
000049 2b54      	.DB  0x2C,0x22,0x2B,0x37,0x0,0x41,0x54,0x2B
00004a 5543
00004b 4453
00004c 313d
00004d 222c      	.DB  0x43,0x55,0x53,0x44,0x3D,0x31,0x2C,0x22
00004e 312a
00004f 3030
000050 2223
000051 000d      	.DB  0x2A,0x31,0x30,0x30,0x23,0x22,0xD,0x0
000052 5441
000053 432b
000054 5355
000055 3d44      	.DB  0x41,0x54,0x2B,0x43,0x55,0x53,0x44,0x3D
000056 2c31
000057 2a22
000058 3031
000059 2332      	.DB  0x31,0x2C,0x22,0x2A,0x31,0x30,0x32,0x23
00005a 0d22
00005b 2b00
00005c 5543
00005d 4453      	.DB  0x22,0xD,0x0,0x2B,0x43,0x55,0x53,0x44
00005e 003a
00005f 3430
000060 3131
000061 3430      	.DB  0x3A,0x0,0x30,0x34,0x31,0x31,0x30,0x34
000062 3033
000063 3430
000064 4233
000065 3430      	.DB  0x33,0x30,0x30,0x34,0x33,0x42,0x30,0x34
000066 3033
000067 3430
000068 4433
000069 3430      	.DB  0x33,0x30,0x30,0x34,0x33,0x44,0x30,0x34
00006a 3134
00006b 3000
00006c 3434
00006d 0030      	.DB  0x34,0x31,0x0,0x30,0x34,0x34,0x30,0x0
00006e 5441
00006f 432b
000070 474d
000071 3d53      	.DB  0x41,0x54,0x2B,0x43,0x4D,0x47,0x53,0x3D
000072 3025
000073 6432
000074 000d
000075 3030      	.DB  0x25,0x30,0x32,0x64,0xD,0x0,0x30,0x30
000076 3130
000077 3030
000078 4230
000079 3139      	.DB  0x30,0x31,0x30,0x30,0x30,0x42,0x39,0x31
00007a 3000
00007b 3030
00007c 2538
00007d 3230      	.DB  0x0,0x30,0x30,0x30,0x38,0x25,0x30,0x32
00007e 0058
00007f 5441
000080 000d
000081 5441      	.DB  0x58,0x0,0x41,0x54,0xD,0x0,0x41,0x54
000082 432b
000083 4552
000084 3f47
000085 000d      	.DB  0x2B,0x43,0x52,0x45,0x47,0x3F,0xD,0x0
000086 5242
000087 4c45
000088 4b4f
000089 4400      	.DB  0x42,0x52,0x45,0x4C,0x4F,0x4B,0x0,0x44
00008a 5645
00008b 4349
00008c 0045
00008d 4843      	.DB  0x45,0x56,0x49,0x43,0x45,0x0,0x43,0x48
00008e 4e41
00008f 4547
000090 5300
000091 6174      	.DB  0x41,0x4E,0x47,0x45,0x0,0x53,0x74,0x61
000092 7574
000093 2d73
000094 4449
000095 454c      	.DB  0x74,0x75,0x73,0x2D,0x49,0x44,0x4C,0x45
000096 5300
000097 6174
000098 7574
000099 2d73      	.DB  0x0,0x53,0x74,0x61,0x74,0x75,0x73,0x2D
00009a 4553
00009b 5543
00009c 0052
00009d 5441      	.DB  0x53,0x45,0x43,0x55,0x52,0x0,0x41,0x54
00009e 432b
00009f 4250
0000a0 3d46
0000a1 4e22      	.DB  0x2B,0x43,0x50,0x42,0x46,0x3D,0x22,0x4E
0000a2 0d22
0000a3 4100
0000a4 2b54
0000a5 4f43      	.DB  0x22,0xD,0x0,0x41,0x54,0x2B,0x43,0x4F
0000a6 5350
0000a7 0d3f
0000a8 2b00
0000a9 4f43      	.DB  0x50,0x53,0x3F,0xD,0x0,0x2B,0x43,0x4F
0000aa 5350
0000ab 003a
0000ac 6542
0000ad 6c65      	.DB  0x50,0x53,0x3A,0x0,0x42,0x65,0x65,0x6C
0000ae 6e69
0000af 0065
0000b0 5441
0000b1 432b      	.DB  0x69,0x6E,0x65,0x0,0x41,0x54,0x2B,0x43
0000b2 474d
0000b3 3d46
0000b4 0d30
0000b5 4100      	.DB  0x4D,0x47,0x46,0x3D,0x30,0xD,0x0,0x41
0000b6 2b54
0000b7 4d43
0000b8 5347
0000b9 333d      	.DB  0x54,0x2B,0x43,0x4D,0x47,0x53,0x3D,0x33
0000ba 0d39
0000bb 3000
0000bc 3030
0000bd 3138      	.DB  0x39,0xD,0x0,0x30,0x30,0x30,0x38,0x31
0000be 3041
0000bf 3134
0000c0 3034
0000c1 3334      	.DB  0x41,0x30,0x34,0x31,0x34,0x30,0x34,0x33
0000c2 3032
0000c3 3334
0000c4 3035
0000c5 3434      	.DB  0x32,0x30,0x34,0x33,0x35,0x30,0x34,0x34
0000c6 3030
0000c7 3434
0000c8 3043
0000c9 3230      	.DB  0x30,0x30,0x34,0x34,0x43,0x30,0x30,0x32
0000ca 3030
0000cb 3334
0000cc 3045
0000cd 3434      	.DB  0x30,0x30,0x34,0x33,0x45,0x30,0x34,0x34
0000ce 3032
0000cf 3334
0000d0 3041
0000d1 3434      	.DB  0x32,0x30,0x34,0x33,0x41,0x30,0x34,0x34
0000d2 3030
0000d3 3434
0000d4 3042
0000d5 3434      	.DB  0x30,0x30,0x34,0x34,0x42,0x30,0x34,0x34
0000d6 3032
0000d7 3334
0000d8 1a30
E:\AVR\SD-WC\List\SD-WC.asm(1146): warning: .cseg .db misalignment - padding zero byte
0000d9 0000      	.DB  0x32,0x30,0x34,0x33,0x30,0x1A,0x0
                 _0x2020060:
E:\AVR\SD-WC\List\SD-WC.asm(1148): warning: .cseg .db misalignment - padding zero byte
0000da 0001      	.DB  0x1
                 _0x2020000:
0000db 4e2d
0000dc 4e41
0000dd 4900
0000de 464e      	.DB  0x2D,0x4E,0x41,0x4E,0x0,0x49,0x4E,0x46
E:\AVR\SD-WC\List\SD-WC.asm(1151): warning: .cseg .db misalignment - padding zero byte
0000df 0000      	.DB  0x0
                 
                 __GLOBAL_INI_TBL:
0000e0 0005      	.DW  0x05
0000e1 0160      	.DW  _0x23
0000e2 008c      	.DW  _0x0*2
                 
0000e3 0007      	.DW  0x07
0000e4 0165      	.DW  _0x31
0000e5 00b7      	.DW  _0x0*2+43
                 
0000e6 0019      	.DW  0x19
0000e7 016c      	.DW  _0x31+7
0000e8 00be      	.DW  _0x0*2+50
                 
0000e9 0005      	.DW  0x05
0000ea 0185      	.DW  _0x31+32
0000eb 00d7      	.DW  _0x0*2+75
                 
0000ec 0007      	.DW  0x07
0000ed 018a      	.DW  _0x8E
0000ee 010c      	.DW  _0x0*2+128
                 
0000ef 0007      	.DW  0x07
0000f0 0191      	.DW  _0x8E+7
0000f1 011a      	.DW  _0x0*2+142
                 
0000f2 0007      	.DW  0x07
0000f3 0198      	.DW  _0xA3
0000f4 0151      	.DW  _0x0*2+197
                 
0000f5 0008      	.DW  0x08
0000f6 019f      	.DW  _0xA3+7
0000f7 0158      	.DW  _0x0*2+204
                 
0000f8 0001      	.DW  0x01
0000f9 03e7      	.DW  __seed_G101
0000fa 01b4      	.DW  _0x2020060*2
                 
                 _0xFFFFFFFF:
0000fb 0000      	.DW  0
                 
                 __RESET:
0000fc 94f8      	CLI
0000fd 27ee      	CLR  R30
0000fe bbec      	OUT  EECR,R30
                 
                 ;INTERRUPT VECTORS ARE PLACED
                 ;AT THE START OF FLASH
0000ff e0f1      	LDI  R31,1
000100 bffb      	OUT  GICR,R31
000101 bfeb      	OUT  GICR,R30
000102 bfe5      	OUT  MCUCR,R30
                 
                 ;DISABLE WATCHDOG
000103 e1f8      	LDI  R31,0x18
000104 bdf1      	OUT  WDTCR,R31
000105 bde1      	OUT  WDTCR,R30
                 
                 ;CLEAR R2-R14
000106 e08d      	LDI  R24,(14-2)+1
000107 e0a2      	LDI  R26,2
000108 27bb      	CLR  R27
                 __CLEAR_REG:
000109 93ed      	ST   X+,R30
00010a 958a      	DEC  R24
00010b f7e9      	BRNE __CLEAR_REG
                 
                 ;CLEAR SRAM
00010c e080      	LDI  R24,LOW(__CLEAR_SRAM_SIZE)
00010d e094      	LDI  R25,HIGH(__CLEAR_SRAM_SIZE)
00010e e6a0      	LDI  R26,__SRAM_START
                 __CLEAR_SRAM:
00010f 93ed      	ST   X+,R30
000110 9701      	SBIW R24,1
000111 f7e9      	BRNE __CLEAR_SRAM
                 
                 ;GLOBAL VARIABLES INITIALIZATION
000112 ece0      	LDI  R30,LOW(__GLOBAL_INI_TBL*2)
000113 e0f1      	LDI  R31,HIGH(__GLOBAL_INI_TBL*2)
                 __GLOBAL_INI_NEXT:
000114 9185      	LPM  R24,Z+
000115 9195      	LPM  R25,Z+
000116 9700      	SBIW R24,0
000117 f061      	BREQ __GLOBAL_INI_END
000118 91a5      	LPM  R26,Z+
000119 91b5      	LPM  R27,Z+
00011a 9005      	LPM  R0,Z+
00011b 9015      	LPM  R1,Z+
00011c 01bf      	MOVW R22,R30
00011d 01f0      	MOVW R30,R0
                 __GLOBAL_INI_LOOP:
00011e 9005      	LPM  R0,Z+
00011f 920d      	ST   X+,R0
000120 9701      	SBIW R24,1
000121 f7e1      	BRNE __GLOBAL_INI_LOOP
000122 01fb      	MOVW R30,R22
000123 cff0      	RJMP __GLOBAL_INI_NEXT
                 __GLOBAL_INI_END:
                 
                 ;HARDWARE STACK POINTER INITIALIZATION
000124 e5ef      	LDI  R30,LOW(__SRAM_END-__HEAP_SIZE)
000125 bfed      	OUT  SPL,R30
000126 e0e4      	LDI  R30,HIGH(__SRAM_END-__HEAP_SIZE)
000127 bfee      	OUT  SPH,R30
                 
                 ;DATA STACK POINTER INITIALIZATION
000128 e6c0      	LDI  R28,LOW(__SRAM_START+__DSTACK_SIZE)
000129 e0d1      	LDI  R29,HIGH(__SRAM_START+__DSTACK_SIZE)
                 
00012a c298      	RJMP _main
                 
                 	.ESEG
                 	.ORG 0
                 
                 	.DSEG
                 	.ORG 0x160
                 
                 	.CSEG
                 ;/*****************************************************
                 ;This program was produced by the
                 ;CodeWizardAVR V2.05.0 Professional
                 ;Automatic Program Generator
                 ;© Copyright 1998-2010 Pavel Haiduc, HP InfoTech s.r.l.
                 ;http://www.hpinfotech.com
                 ;
                 ;Project : SD-WC
                 ;Version : 1
                 ;Date    : 16.10.2011
                 ;Author  : Alexandr Gordejchik
                 ;Company : NTS
                 ;Comments:
                 ;
                 ;
                 ;Chip type               : ATmega8L
                 ;Program type            : Application
                 ;AVR Core Clock frequency: 3,686400 MHz
                 ;Memory model            : Small
                 ;External RAM size       : 0
                 ;Data Stack size         : 256
                 ;*****************************************************/
                 ;
                 ;#include <mega8.h>
                 	#ifndef __SLEEP_DEFINED__
                 	#define __SLEEP_DEFINED__
                 	.EQU __se_bit=0x80
                 	.EQU __sm_mask=0x70
                 	.EQU __sm_powerdown=0x20
                 	.EQU __sm_powersave=0x30
                 	.EQU __sm_standby=0x60
                 	.EQU __sm_ext_standby=0x70
                 	.EQU __sm_adc_noise_red=0x10
                 	.SET power_ctrl_reg=mcucr
                 	#endif
                 ;#include <delay.h>
                 ;#include <string.h>
                 ;#include <stdlib.h>
                 ;#include <stdio.h>
                 ;#include <spi.h>
                 ;
                 ;#define CR 0xD     // Определение служебных символов
                 ;#define LF 0xA
                 ;#define ctrl_Z 0x1A
                 ;
                 ;typedef union{                     // Определение структурного типа DATA
                 ;		unsigned int data;
                 ;		unsigned char byte[2];
                 ;		struct{
                 ;			unsigned char b0:1;
                 ;			unsigned char b1:1;
                 ;			unsigned char b2:1;
                 ;			unsigned char b3:1;
                 ;			unsigned char b4:1;
                 ;			unsigned char b5:1;
                 ;			unsigned char b6:1;
                 ;			unsigned char b7:1;
                 ;			unsigned char b8:1;
                 ;			unsigned char b9:1;
                 ;			unsigned char b10:1;
                 ;			unsigned char b11:1;
                 ;			unsigned char b12:1;
                 ;			unsigned char b13:1;
                 ;			unsigned char b14:1;
                 ;			unsigned char b15:1;
                 ;		} Bit;
                 ;	}DATA;
                 ;                    // Определение глобальных переменных
                 ;char z;          //Переменная статуса охраны
                 ;unsigned int i; //Счетчик
                 ;unsigned char SPI_buffer[64];
                 ;unsigned char pktlen;
                 ;char Error;
                 ;eeprom unsigned char OP;
                 ;eeprom char NR[12];     // Массив телефонного номера
                 ;eeprom unsigned char COUNT;
                 ;//eeprom char eebuf[64];
                 ;//eeprom char eebuffer[256];
                 ;flash unsigned char CH=78;  //Номер канала
                 ;flash unsigned char SW=9;  //Делитель частоты
                 ;// значения для инициализации кадра
                 ;                                                               //   15 14 13 12 11 10 9 8 7 6 5 4 3 2 1 0
                 ;        flash unsigned char tbl_frame[30]  = {0x30,0x98,0x90,  //48  1  0  0  1  1  0 0 0 0 0 0 0 0 0 0 0 15:13 - 5 байт приамбула 12:11 - синхро-слово 64 бита {Reg55[15:0],Reg54[15:0],Reg53[15:0],Reg52[15:0]} 10:8 - трейлер 4 бита 7:6 - NRZ кодирование                  сигнала 5:4 - не использовать помехоустойчивое кодирование 3,2,1,0 - не особо важные настройки
                 ;                                              0x31,0xFF,0x8F,  //49  1  1  1  1  1  1 1 1 1 0 0 0 1 1 1 1 15:8 - максимальная задержка 2 мс 7 - часы работают в режиме сна 5:0 - BDATA1 сбросить через 15 us
                 ;                                              0x32,0x80,0x28,  //50  1  0  0  0  0  0 0 0 0 0 1 0 1 0 0 0 15:8 и 7:0 задержки для работы в режиме TX
                 ;                                              0x33,0x80,0x56,  //51  1  0  0  0  0  0 0 0 0 1 0 1 0 1 1 0 15:8 - RX таймер 7 - MISO в неопределенном состоянии 6:0 - ключ для скрамблера
                 ;                                              0x34,0x4E,0xF6,  //52  0  1  0  0  1  1 1 0 1 1 1 1 0 1 1 0  биты синхронизации
                 ;                                              0x35,0xF6,0xF5,  //53  1  1  1  1  0  1 1 0 1 1 1 1 0 1 0 1  биты синхронизации
                 ;                                              0x36,0x18,0x5C,  //54  0  0  0  1  1  0 0 0 0 1 0 1 1 1 0 0  биты синхронизации
                 ;                                              0x37,0xD6,0x51,  //55  1  1  0  1  0  1 1 0 0 1 0 1 0 0 0 1  биты синхронизации
                 ;                                              0x38,0x44,0x44,  //56  0  1  0  0  0  1 0 0 0 1 0 0 0 1 0 0  7 - PKF-flag высокий уровень активный
                 ;                                              0x39,0xA0,0x00}; //57  1  0  1  0  0  0 0 0 0 0 0 0 0 0 0 0  15 - использовать CRC 14 -не использовать скрамблер 13 - первый байт содержит длину пакета 7:0 - CRC (???????????)
                 ;
                 ;		// значения для инициализации передатчика               //   15 14 13 12 11 10 9 8 7 6 5 4 3 2 1 0
                 ;		flash unsigned char tbl_rfinit[54]  = {0x09,0x21,0x01,  //9   0  0  1  0  0  0 0 1 0 0 0 0 0 0 0 1
                 ;											   0x00,0x35,0x4D,  //0   0  0  0  1  1  1 1 1 0 0 0 0 0 0 0 1
                 ;											   0x02,0x1F,0x01,  //2   0  0  0  1  1  1 1 1 0 0 0 0 0 0 0 1
                 ;											   0x04,0xBC,0xF0,  //4   1  0  1  1  1  1 0 0 1 1 1 1 0 0 0 0
                 ;											   0x05,0x00,0xA1,  //5   0  0  0  0  0  0 0 0 1 0 1 0 0 0 0 1
                 ;											   0x07,0x12,0x4C,  //7   0  0  0  1  0  0 1 0 0 1 0 0 1 1 0 0 13:9 - делитель 8- TX mode 7- RX mode 6:0 - частота (2402+76)
                 ;											   0x08,0x80,0x00,  //8   1  0  0  0  0  0 0 0 0 0 0 0 0 0 0 0
                 ;											   0x0C,0x80,0x00,  //12  1  0  0  0  0  0 0 0 0 0 0 0 0 0 0 0
                 ;											   0x0E,0x16,0x9B,  //14  0  0  0  1  0  1 1 0 1 0 0 1 1 0 1 1
                 ;											   0x0F,0x90,0xAD,  //15  1  0  0  1  0  0 0 0 1 0 1 0 1 1 0 1
                 ;											   0x10,0xB0,0x00,  //16  1  0  1  1  0  0 0 0 0 0 0 0 0 0 0 0
                 ;											   0x13,0xA1,0x14,  //19  1  0  1  0  0  0 0 1 0 0 0 1 0 1 0 0
                 ;											   0x14,0x81,0x91,  //20  1  0  0  0  0  0 0 1 1 0 0 1 0 0 0 1
                 ;											   0x16,0x00,0x02,  //22  0  0  0  0  0  0 0 0 0 0 0 0 0 0 1 0
                 ;											   0x18,0xB1,0x40,  //24  1  0  1  1  0  0 0 1 0 1 0 0 0 0 0 0
                 ;											   0x19,0xA8,0x0F,  //25  1  0  1  0  1  0 0 0 0 0 0 0 1 1 1 1
                 ;											   0x1A,0x3F,0x04,  //26  0  0  1  1  1  1 1 1 0 0 0 0 0 1 0 0
                 ;											   0x1C,0x58,0x00}; //28  0  1  0  1  1  0 0 0 0 0 0 0 0 0 0 0
                 ;
                 ;#ifndef RXB8
                 ;#define RXB8 1
                 ;#endif
                 ;
                 ;#ifndef TXB8
                 ;#define TXB8 0
                 ;#endif
                 ;
                 ;#ifndef UPE
                 ;#define UPE 2
                 ;#endif
                 ;
                 ;#ifndef DOR
                 ;#define DOR 3
                 ;#endif
                 ;
                 ;#ifndef FE
                 ;#define FE 4
                 ;#endif
                 ;
                 ;#ifndef UDRE
                 ;#define UDRE 5
                 ;#endif
                 ;
                 ;#ifndef RXC
                 ;#define RXC 7
                 ;#endif
                 ;
                 ;#define FRAMING_ERROR (1<<FE)
                 ;#define PARITY_ERROR (1<<UPE)
                 ;#define DATA_OVERRUN (1<<DOR)
                 ;#define DATA_REGISTER_EMPTY (1<<UDRE)
                 ;#define RX_COMPLETE (1<<RXC)
                 ;
                 ;// USART Receiver buffer
                 ;#define RX_BUFFER_SIZE 512
                 ;char rx_buffer[RX_BUFFER_SIZE];
                 ;
                 ;#if RX_BUFFER_SIZE <= 256
                 ;
                 ;#else
                 ;unsigned int rx_wr_index;
                 ;#endif
                 ;
                 ;// This flag is set on USART Receiver buffer overflow
                 ;
                 ;
                 ;//********************************************************************************************
                 ;void LightDiode(unsigned char n) // Функция управления светодиодом
                 ; 0000 0098 {
                 
                 	.CSEG
                 _LightDiode:
                 ; 0000 0099  switch (n)
00012b 81e8      ;	n -> Y+0
00012c d4dc      	LD   R30,Y
                 	RCALL SUBOPT_0x0
                 ; 0000 009A  {
00012d 9730      ; 0000 009B  case 0:
00012e f419      	SBIW R30,0
                 	BRNE _0x6
                 ; 0000 009C 			{
00012f 98ac      ; 0000 009D 			PORTC.4=0;
                 	CBI  0x15,4
000130 98ad      ; 0000 009E             PORTC.5=0;
                 	CBI  0x15,5
000131 c013      ; 0000 009F 				break;
                 	RJMP _0x5
                 ; 0000 00A0 			}
                 ; 0000 00A1  case 1:
000132 30e1      _0x6:
000133 e0a0      	CPI  R30,LOW(0x1)
000134 07fa      	LDI  R26,HIGH(0x1)
000135 f419      	CPC  R31,R26
                 	BRNE _0xB
                 ; 0000 00A2 			{
000136 9aac      ; 0000 00A3 			PORTC.4=1;
                 	SBI  0x15,4
000137 98ad      ; 0000 00A4             PORTC.5=0;
                 	CBI  0x15,5
000138 c00c      ; 0000 00A5 				break;
                 	RJMP _0x5
                 ; 0000 00A6 			}
                 ; 0000 00A7  case 2:
000139 30e2      _0xB:
00013a e0a0      	CPI  R30,LOW(0x2)
00013b 07fa      	LDI  R26,HIGH(0x2)
00013c f411      	CPC  R31,R26
                 	BRNE _0x10
                 ; 0000 00A8 			{
00013d 98ac      ; 0000 00A9 			PORTC.4=0;
                 	CBI  0x15,4
00013e c005      ; 0000 00AA             PORTC.5=1;
                 	RJMP _0xC3
                 ; 0000 00AB 				break;
                 ; 0000 00AC  case 3:
00013f 30e3      _0x10:
000140 e0a0      	CPI  R30,LOW(0x3)
000141 07fa      	LDI  R26,HIGH(0x3)
000142 f411      	CPC  R31,R26
                 	BRNE _0x5
                 ; 0000 00AD 			{
000143 9aac      ; 0000 00AE 			PORTC.4=1;
                 	SBI  0x15,4
                 ; 0000 00AF             PORTC.5=1;
000144 9aad      _0xC3:
                 	SBI  0x15,5
                 ; 0000 00B0 				break;
                 ; 0000 00B1 			} 			}
                 ; 0000 00B2  }
                 _0x5:
                 ; 0000 00B3 
000145 c380      ; 0000 00B4 }
                 	RJMP _0x20C0002
                 ;//***********************************************************************************************************
                 ;void UART_Transmit(char data) // Функция передачи символа через UART
                 ; 0000 00B7 {
                 _UART_Transmit:
                 ; 0000 00B8 while (!(UCSRA & (1<<UDRE))) {};
                 ;	data -> Y+0
000146 9b5d      _0x1A:
000147 cffe      	SBIS 0xB,5
                 	RJMP _0x1A
000148 81e8      ; 0000 00B9 UDR=data;
000149 b9ec      	LD   R30,Y
                 	OUT  0xC,R30
00014a c37b      ; 0000 00BA }
                 	RJMP _0x20C0002
                 ;
                 ;//**********************************************************************************************************
                 ;       void SEND_Str(flash char *str) {        // Функция передачи строки  из флеш памяти
                 ; 0000 00BD void SEND_Str(flash char *str) {
                 _SEND_Str:
                 ; 0000 00BE         while(*str) {
                 ;	*str -> Y+0
00014b d4bf      _0x1D:
00014c 91e4      	RCALL SUBOPT_0x1
00014d 30e0      	LPM  R30,Z
00014e f019      	CPI  R30,0
                 	BREQ _0x1F
00014f d4be      ; 0000 00BF        UART_Transmit(*str++);
000150 d4c4      	RCALL SUBOPT_0x2
                 	RCALL SUBOPT_0x3
                 ; 0000 00C0 
000151 cff9      ; 0000 00C1     };
                 	RJMP _0x1D
                 _0x1F:
000152 e1e4      ; 0000 00C2     delay_ms(20);
000153 e0f0      	LDI  R30,LOW(20)
000154 d4c2      	LDI  R31,HIGH(20)
000155 d585      	RCALL SUBOPT_0x4
                 	RCALL _delay_ms
000156 c1ad      ; 0000 00C3 }
                 	RJMP _0x20C0004
                 ;
                 ;//**********************************************************************************************************
                 ;void CLEAR_BUF(void)   // Функция очистки буффера приема
                 ; 0000 00C7 {
                 _CLEAR_BUF:
                 ; 0000 00C8 
000157 d4c2      ; 0000 00C9 for (i=0;i<RX_BUFFER_SIZE;i++) {
                 	RCALL SUBOPT_0x5
000158 e0e0      _0x21:
000159 e0f2      	LDI  R30,LOW(512)
00015a d4c2      	LDI  R31,HIGH(512)
00015b f438      	RCALL SUBOPT_0x6
                 	BRSH _0x22
00015c eea7      ; 0000 00CA       rx_buffer[i]=0;
00015d e0b1      	LDI  R26,LOW(_rx_buffer)
00015e d4c1      	LDI  R27,HIGH(_rx_buffer)
00015f e0e0      	RCALL SUBOPT_0x7
000160 93ec      	LDI  R30,LOW(0)
                 	ST   X,R30
000161 d4c1      ; 0000 00CB     };
000162 cff5      	RCALL SUBOPT_0x8
                 	RJMP _0x21
                 _0x22:
000163 24aa      ; 0000 00CC    rx_wr_index=0;
000164 24bb      	CLR  R10
                 	CLR  R11
000165 95a8      ; 0000 00CD    #asm("wdr")
                 	wdr
                 ; 0000 00CE 
000166 9508      ; 0000 00CF }
                 	RET
                 ;//**********************************************************************************************************
                 ;  char TEST_OK(void)     // Функция проверки ответа ОК на команду
                 ; 0000 00D2   {
                 _TEST_OK:
                 ; 0000 00D3   char c;
                 ; 0000 00D4   char *d;
                 ; 0000 00D5   char OK[]="OK";
000167 9723      ; 0000 00D6   d=strstr(rx_buffer, OK);
000168 e4ef      	SBIW R28,3
000169 83e8      	LDI  R30,LOW(79)
00016a e4eb      	ST   Y,R30
00016b 83e9      	LDI  R30,LOW(75)
00016c e0e0      	STD  Y+1,R30
00016d 83ea      	LDI  R30,LOW(0)
00016e d4b8      	STD  Y+2,R30
                 	RCALL SUBOPT_0x9
                 ;	c -> R17
                 ;	*d -> R18,R19
                 ;	OK -> Y+4
00016f 01d9      ; 0000 00D7   c=*d;
000170 911c      	MOVW R26,R18
                 	LD   R17,X
000171 95a8      ; 0000 00D8   #asm("wdr")
                 	wdr
000172 dfe4      ; 0000 00D9  CLEAR_BUF();
                 	RCALL _CLEAR_BUF
000173 d4bd      ; 0000 00DA    return c;
000174 9627      	RCALL SUBOPT_0xA
000175 9508      	ADIW R28,7
                 	RET
                 ; 0000 00DB 
                 ; 0000 00DC   }
                 ;//**********************************************************************************************************
                 ;  char REG_NET(void)   // Функция проверки регистрации в сети
                 ; 0000 00DF   {
                 _REG_NET:
                 ; 0000 00E0   char c;
                 ; 0000 00E1   char *d;
                 ; 0000 00E2   char REG[]="+CREG:";
000176 9727      ; 0000 00E3   d=strstr(rx_buffer, REG);
000177 e2eb      	SBIW R28,7
000178 83e8      	LDI  R30,LOW(43)
000179 e4e3      	ST   Y,R30
00017a 83e9      	LDI  R30,LOW(67)
00017b e5e2      	STD  Y+1,R30
00017c 83ea      	LDI  R30,LOW(82)
00017d e4e5      	STD  Y+2,R30
00017e 83eb      	LDI  R30,LOW(69)
00017f e4e7      	STD  Y+3,R30
000180 83ec      	LDI  R30,LOW(71)
000181 e3ea      	STD  Y+4,R30
000182 83ed      	LDI  R30,LOW(58)
000183 e0e0      	STD  Y+5,R30
000184 83ee      	LDI  R30,LOW(0)
000185 d4a1      	STD  Y+6,R30
                 	RCALL SUBOPT_0x9
                 ;	c -> R17
                 ;	*d -> R18,R19
                 ;	REG -> Y+4
                +
000186 5f27     +SUBI R18 , LOW ( - 9 )
000187 4f3f     +SBCI R19 , HIGH ( - 9 )
                 	__ADDWRN 18,19,9
                 ; 0000 00E5   c=*d;
000188 01d9      	MOVW R26,R18
000189 911c      	LD   R17,X
                 ; 0000 00E6   #asm("wdr")
00018a 95a8      	wdr
                 ; 0000 00E7   CLEAR_BUF();
00018b dfcb      	RCALL _CLEAR_BUF
                 ; 0000 00E8   return c;
00018c d4a4      	RCALL SUBOPT_0xA
00018d 962b      	ADIW R28,11
00018e 9508      	RET
                 ; 0000 00E9   }
                 ;//**********************************************************************************************************
                 ;char SET_NR(void) // Функция считывания телефонного номера с SIM карты
                 ; 0000 00EC {
                 _SET_NR:
                 ; 0000 00ED char c;
                 ; 0000 00EE char *d;
                 ; 0000 00EF 
                 ; 0000 00F0 d=strstr(rx_buffer, ",\"+7");
00018f d58b      	RCALL __SAVELOCR4
                 ;	c -> R17
                 ;	*d -> R18,R19
000190 d4a3      	RCALL SUBOPT_0xB
                +
000191 e6e0     +LDI R30 , LOW ( _0x23 + ( 0 ) )
000192 e0f1     +LDI R31 , HIGH ( _0x23 + ( 0 ) )
                 	__POINTW1MN _0x23,0
000193 d4a3      	RCALL SUBOPT_0xC
000194 019f      	MOVW R18,R30
                 ; 0000 00F1 if (d==NULL){c=0;
000195 2e02      	MOV  R0,R18
000196 2a03      	OR   R0,R19
000197 f419      	BRNE _0x24
000198 e010      	LDI  R17,LOW(0)
                 ; 0000 00F2           return c;}
000199 d497      	RCALL SUBOPT_0xA
00019a c325      	RJMP _0x20C0003
                 ; 0000 00F3   d=d+4;
                 _0x24:
                +
00019b 5f2c     +SUBI R18 , LOW ( - 4 )
00019c 4f3f     +SBCI R19 , HIGH ( - 4 )
                 	__ADDWRN 18,19,4
                 ; 0000 00F4   i=0;
00019d d47c      	RCALL SUBOPT_0x5
                 ; 0000 00F5   while(i<12)
                 _0x25:
00019e d49a      	RCALL SUBOPT_0xD
00019f f448      	BRSH _0x27
                 ; 0000 00F6   {
                 ; 0000 00F7   NR[i++]=*d;
0001a0 d482      	RCALL SUBOPT_0x8
0001a1 d49a      	RCALL SUBOPT_0xE
                 ; 0000 00F8    d=d-1;
                +
0001a2 5021     +SUBI R18 , LOW ( 1 )
0001a3 4030     +SBCI R19 , HIGH ( 1 )
                 	__SUBWRN 18,19,1
                 ; 0000 00F9    NR[i++]=*d;
0001a4 d47e      	RCALL SUBOPT_0x8
0001a5 d496      	RCALL SUBOPT_0xE
                 ; 0000 00FA    d=d+3;
                +
0001a6 5f2d     +SUBI R18 , LOW ( - 3 )
0001a7 4f3f     +SBCI R19 , HIGH ( - 3 )
                 	__ADDWRN 18,19,3
                 ; 0000 00FB   }
0001a8 cff5      	RJMP _0x25
                 _0x27:
                 ; 0000 00FC   NR[10]='F';
                +
0001a9 e0ab     +LDI R26 , LOW ( _NR + ( 10 ) )
0001aa e0b0     +LDI R27 , HIGH ( _NR + ( 10 ) )
                 	__POINTW2MN _NR,10
0001ab e4e6      	LDI  R30,LOW(70)
0001ac d55b      	RCALL __EEPROMWRB
                 ; 0000 00FD   #asm("wdr")
0001ad 95a8      	wdr
                 ; 0000 00FE   CLEAR_BUF();
0001ae dfa8      	RCALL _CLEAR_BUF
                 ; 0000 00FF   c=1;
0001af e011      	LDI  R17,LOW(1)
                 ; 0000 0100   return c;
0001b0 d480      	RCALL SUBOPT_0xA
0001b1 c30e      	RJMP _0x20C0003
                 ; 0000 0101 }
                 
                 	.DSEG
                 _0x23:
000160           	.BYTE 0x5
                 ;
                 ;//**********************************************************************************************************
                 ;// Функция проверки балланса
                 ; void BALLANSE(void)
                 ; 0000 0106  {   unsigned char S;
                 
                 	.CSEG
                 _BALLANSE:
                 ; 0000 0107    // char XY[2];
                 ; 0000 0108     unsigned char *s1, *s2;
                 ; 0000 0109     delay_ms(4000);
0001b2 d566      	RCALL __SAVELOCR6
                 ;	S -> R17
                 ;	*s1 -> R18,R19
                 ;	*s2 -> R20,R21
0001b3 eae0      	LDI  R30,LOW(4000)
0001b4 e0ff      	LDI  R31,HIGH(4000)
0001b5 d48f      	RCALL SUBOPT_0xF
                 ; 0000 010A     CLEAR_BUF();
0001b6 dfa0      	RCALL _CLEAR_BUF
                 ; 0000 010B   do
                 _0x29:
                 ; 0000 010C    { if(OP==0) SEND_Str("AT+CUSD=1,\"*100#\"\r"); //Отправа запроса балланса
0001b7 e0a0      	LDI  R26,LOW(_OP)
0001b8 e0b0      	LDI  R27,HIGH(_OP)
0001b9 d542      	RCALL __EEPROMRDB
0001ba 30e0      	CPI  R30,0
0001bb f419      	BRNE _0x2B
                +
0001bc e9e1     +LDI R30 , LOW ( 2 * _0x0 + ( 5 ) )
0001bd e0f0     +LDI R31 , HIGH ( 2 * _0x0 + ( 5 ) )
                 	__POINTW1FN _0x0,5
0001be c002      	RJMP _0xC4
                 ; 0000 010D      else SEND_Str("AT+CUSD=1,\"*102#\"\r");
                 _0x2B:
                +
0001bf eae4     +LDI R30 , LOW ( 2 * _0x0 + ( 24 ) )
0001c0 e0f0     +LDI R31 , HIGH ( 2 * _0x0 + ( 24 ) )
                 	__POINTW1FN _0x0,24
                 _0xC4:
0001c1 93fa      	ST   -Y,R31
0001c2 93ea      	ST   -Y,R30
0001c3 df87      	RCALL _SEND_Str
                 ; 0000 010E    delay_ms(500);
0001c4 efe4      	LDI  R30,LOW(500)
0001c5 e0f1      	LDI  R31,HIGH(500)
0001c6 d47e      	RCALL SUBOPT_0xF
                 ; 0000 010F    #asm("wdr")
0001c7 95a8      	wdr
                 ; 0000 0110     }while(TEST_OK()==0);
0001c8 df9e      	RCALL _TEST_OK
0001c9 30e0      	CPI  R30,0
0001ca f361      	BREQ _0x29
                 ; 0000 0111     for(i=0;i<5;i++)
0001cb d44e      	RCALL SUBOPT_0x5
                 _0x2E:
0001cc e0e5      	LDI  R30,LOW(5)
0001cd e0f0      	LDI  R31,HIGH(5)
0001ce d44e      	RCALL SUBOPT_0x6
0001cf f458      	BRSH _0x2F
                 ; 0000 0112     {
                 ; 0000 0113      if(strstr(rx_buffer, "+CUSD:")!=NULL) break;   //Ожидание ответа на запрос
0001d0 d463      	RCALL SUBOPT_0xB
                +
0001d1 e6e5     +LDI R30 , LOW ( _0x31 + ( 0 ) )
0001d2 e0f1     +LDI R31 , HIGH ( _0x31 + ( 0 ) )
                 	__POINTW1MN _0x31,0
0001d3 d463      	RCALL SUBOPT_0xC
0001d4 9730      	SBIW R30,0
0001d5 f429      	BRNE _0x2F
                 ; 0000 0114      #asm("wdr")
0001d6 95a8      	wdr
                 ; 0000 0115      delay_ms(1000);
0001d7 d46f      	RCALL SUBOPT_0x10
                 ; 0000 0116      #asm("wdr")
0001d8 95a8      	wdr
                 ; 0000 0117     }
0001d9 d449      	RCALL SUBOPT_0x8
0001da cff1      	RJMP _0x2E
                 _0x2F:
                 ; 0000 0118     s1=strstr(rx_buffer, "04110430043B0430043D0441");
0001db d458      	RCALL SUBOPT_0xB
                +
0001dc e6ec     +LDI R30 , LOW ( _0x31 + ( 7 ) )
0001dd e0f1     +LDI R31 , HIGH ( _0x31 + ( 7 ) )
                 	__POINTW1MN _0x31,7
0001de d458      	RCALL SUBOPT_0xC
0001df 019f      	MOVW R18,R30
                 ; 0000 0119     if(s1!=NULL)
0001e0 2e02      	MOV  R0,R18
0001e1 2a03      	OR   R0,R19
0001e2 f151      	BREQ _0x32
                 ; 0000 011A     {
                 ; 0000 011B     s2=strstr(rx_buffer, "0440");
0001e3 d450      	RCALL SUBOPT_0xB
                +
0001e4 e8e5     +LDI R30 , LOW ( _0x31 + ( 32 ) )
0001e5 e0f1     +LDI R31 , HIGH ( _0x31 + ( 32 ) )
                 	__POINTW1MN _0x31,32
0001e6 d450      	RCALL SUBOPT_0xC
0001e7 01af      	MOVW R20,R30
                 ; 0000 011C     S=((s2-s1+4)/2)+13;
0001e8 01fa      	MOVW R30,R20
0001e9 1be2      	SUB  R30,R18
0001ea 0bf3      	SBC  R31,R19
0001eb 9634      	ADIW R30,4
0001ec 95f6      	LSR  R31
0001ed 95e7      	ROR  R30
0001ee 5fe3      	SUBI R30,-LOW(13)
0001ef 2f1e      	MOV  R17,R30
                 ; 0000 011D    // sprintf(XY, "%02d", S);
                 ; 0000 011E    // XX[0]=XY[0];
                 ; 0000 011F    // XX[1]=XY[1];
                 ; 0000 0120 
                 ; 0000 0121     printf("AT+CMGS=%02d\r",S) ;
                +
0001f0 edec     +LDI R30 , LOW ( 2 * _0x0 + ( 80 ) )
0001f1 e0f0     +LDI R31 , HIGH ( 2 * _0x0 + ( 80 ) )
                 	__POINTW1FN _0x0,80
0001f2 d457      	RCALL SUBOPT_0x11
                 ; 0000 0122     delay_ms(100);
0001f3 d460      	RCALL SUBOPT_0x12
                 ; 0000 0123     #asm("wdr")
0001f4 95a8      	wdr
                 ; 0000 0124      SEND_Str("0001000B91");     // Ввод настроек PDU
0001f5 d461      	RCALL SUBOPT_0x13
                 ; 0000 0125 
                 ; 0000 0126       for(i=0;i<12;i++)            // Ввод номера
                 _0x34:
0001f6 d442      	RCALL SUBOPT_0xD
0001f7 f418      	BRSH _0x35
                 ; 0000 0127       {UART_Transmit(NR[i]);}
0001f8 d463      	RCALL SUBOPT_0x14
0001f9 d429      	RCALL SUBOPT_0x8
0001fa cffb      	RJMP _0x34
                 _0x35:
                 ; 0000 0128       S=S-13;
0001fb d465      	RCALL SUBOPT_0x15
0001fc 973d      	SBIW R30,13
0001fd 2f1e      	MOV  R17,R30
                 ; 0000 0129       printf("0008%02X", S);
                +
0001fe efe5     +LDI R30 , LOW ( 2 * _0x0 + ( 105 ) )
0001ff e0f0     +LDI R31 , HIGH ( 2 * _0x0 + ( 105 ) )
                 	__POINTW1FN _0x0,105
000200 d449      	RCALL SUBOPT_0x11
                 ; 0000 012A       s2=s2+4;
                +
000201 5f4c     +SUBI R20 , LOW ( - 4 )
000202 4f5f     +SBCI R21 , HIGH ( - 4 )
                 	__ADDWRN 20,21,4
                 ; 0000 012B       do{
                 _0x37:
                 ; 0000 012C        UART_Transmit(*s1);
000203 01d9      	MOVW R26,R18
000204 91ec      	LD   R30,X
000205 d40f      	RCALL SUBOPT_0x3
                 ; 0000 012D        s1++;
                +
000206 5f2f     +SUBI R18 , LOW ( - 1 )
000207 4f3f     +SBCI R19 , HIGH ( - 1 )
                 	__ADDWRN 18,19,1
                 ; 0000 012E       }while(s1!=s2);
                +
000208 1742     +CP R20 , R18
000209 0753     +CPC R21 , R19
                 	__CPWRR 20,21,18,19
00020a f7c1      	BRNE _0x37
                 ; 0000 012F       UART_Transmit(0x1A);
00020b e1ea      	LDI  R30,LOW(26)
00020c d408      	RCALL SUBOPT_0x3
                 ; 0000 0130              /*
                 ; 0000 0131       delay_ms(1000);
                 ; 0000 0132   for (i=0; i<256; i++)    // Запись буфера приема в eeprom
                 ; 0000 0133       {eebuffer[i]=rx_buffer[i];}
                 ; 0000 0134              */
                 ; 0000 0135       }
                 ; 0000 0136       CLEAR_BUF();
                 _0x32:
00020d df49      	RCALL _CLEAR_BUF
                 ; 0000 0137  }
00020e d511      	RCALL __LOADLOCR6
00020f 9626      	ADIW R28,6
000210 9508      	RET
                 
                 	.DSEG
                 _0x31:
000165           	.BYTE 0x25
                 ;//********************************************************************************************
                 ;//*******************ФУНКЦИИ ДЛЯ РАБОТЫ С ТРАНСИВЕРОМ*****************************************
                 ;//============================================================================================
                 ;unsigned char SPI_SEND(unsigned char data)  // Передать/принять байт  по SPI
                 ; 0000 013C {
                 
                 	.CSEG
                 _SPI_SEND:
                 ; 0000 013D SPDR = data;
                 ;	data -> Y+0
000211 81e8      	LD   R30,Y
000212 b9ef      	OUT  0xF,R30
                 ; 0000 013E 		while (!(SPSR & (1<<SPIF)));
                 _0x39:
000213 9b77      	SBIS 0xE,7
000214 cffe      	RJMP _0x39
                 ; 0000 013F 		return SPDR;
000215 b1ef      	IN   R30,0xF
000216 c2af      	RJMP _0x20C0002
                 ; 0000 0140 }
                 ;
                 ;//*******************************************************************************************
                 ;//записать в регистр трансивера значение
                 ;	void TR24_Wrtie(unsigned char reg,unsigned int data)
                 ; 0000 0145 	{
                 _TR24_Wrtie:
                 ; 0000 0146 		union U
                 ; 0000 0147 		{
                 ; 0000 0148 			unsigned int buf;
                 ; 0000 0149 			unsigned char b[2];
                 ; 0000 014A 		};
                 ; 0000 014B        union U dat;
                 ; 0000 014C 		dat.buf=data;
000217 9722      	SBIW R28,2
                 ;	reg -> Y+4
                 ;	data -> Y+2
                 ;	U -> Y+2
                 ;	dat -> Y+0
000218 81ea      	LDD  R30,Y+2
000219 81fb      	LDD  R31,Y+2+1
00021a d448      	RCALL SUBOPT_0x16
                 ; 0000 014D 
                 ; 0000 014E 		PORTB.2=0;       // SPI_SS ON
00021b 98c2      	CBI  0x18,2
                 ; 0000 014F 		SPI_SEND(reg);    //регистр
00021c 81ec      	LDD  R30,Y+4
00021d d448      	RCALL SUBOPT_0x17
                 ; 0000 0150 		delay_us(2);
                 ; 0000 0151 		SPI_SEND(dat.b[1]);   //старшая часть
00021e 81e9      	LDD  R30,Y+1
00021f d446      	RCALL SUBOPT_0x17
                 ; 0000 0152 		delay_us(2);
                 ; 0000 0153 		SPI_SEND(dat.b[0]);   //младшая часть
000220 81e8      	LD   R30,Y
000221 d444      	RCALL SUBOPT_0x17
                 ; 0000 0154 		delay_us(2);
                 ; 0000 0155 		PORTB.2=1;     // SPI_SS OFF
000222 9ac2      	SBI  0x18,2
                 ; 0000 0156         #asm("wdr")
000223 95a8      	wdr
                 ; 0000 0157 	}//end writeByte
000224 9625      	ADIW R28,5
000225 9508      	RET
                 ;//*******************************************************************************************
                 ; //Чтение из регистра трансивера
                 ;	unsigned int TR24A_Read(unsigned char reg)
                 ; 0000 015B 	{
                 _TR24A_Read:
                 ; 0000 015C 		union U
                 ; 0000 015D 		{
                 ; 0000 015E 			unsigned int buf;
                 ; 0000 015F 			unsigned char b[2];
                 ; 0000 0160 		};
                 ; 0000 0161            union U dat;
                 ; 0000 0162 		PORTB.2=0;       // SPI_SS ON
000226 9722      	SBIW R28,2
                 ;	reg -> Y+2
                 ;	U -> Y+2
                 ;	dat -> Y+0
000227 98c2      	CBI  0x18,2
                 ; 0000 0163 		SPI_SEND(reg |0x80);   //Старший бит определяет операцию
000228 81ea      	LDD  R30,Y+2
000229 68e0      	ORI  R30,0x80
00022a d43b      	RCALL SUBOPT_0x17
                 ; 0000 0164 		delay_us(2);
                 ; 0000 0165 		dat.b[1]=SPI_SEND(0x0FF);
00022b d440      	RCALL SUBOPT_0x18
00022c 83e9      	STD  Y+1,R30
                 ; 0000 0166 		delay_us(2);
                +
00022d e082     +LDI R24 , LOW ( 2 )
                +__DELAY_USB_LOOP :
00022e 958a     +DEC R24
00022f f7f1     +BRNE __DELAY_USB_LOOP
                 	__DELAY_USB 2
                 ; 0000 0167 		dat.b[0]=SPI_SEND(0x0FF);
000230 d43b      	RCALL SUBOPT_0x18
000231 83e8      	ST   Y,R30
                 ; 0000 0168 		delay_us(2);
                +
000232 e082     +LDI R24 , LOW ( 2 )
                +__DELAY_USB_LOOP :
000233 958a     +DEC R24
000234 f7f1     +BRNE __DELAY_USB_LOOP
                 	__DELAY_USB 2
                 ; 0000 0169 		PORTB.2=1;     // SPI_SS OFF
000235 9ac2      	SBI  0x18,2
                 ; 0000 016A          #asm("wdr")
000236 95a8      	wdr
                 ; 0000 016B 		return dat.buf;
000237 d3d3      	RCALL SUBOPT_0x1
000238 c299      	RJMP _0x20C0001
                 ; 0000 016C 	}//end readByte
                 ;//*******************************************************************************************
                 ;//Инициализация трансивера
                 ;	void TR24A_INIT(void)
                 ; 0000 0170 	{
                 _TR24A_INIT:
                 ; 0000 0171 
                 ; 0000 0172 		union U
                 ; 0000 0173 		{
                 ; 0000 0174 			unsigned int data;     //значение регистра
                 ; 0000 0175 			unsigned char b[2];
                 ; 0000 0176 		};
                 ; 0000 0177         union U dt;
                 ; 0000 0178                 /*
                 ; 0000 0179 		chanel=76;   //канал по умолчанию
                 ; 0000 017A 		swallow=9;    //делитель частоты по умолчанию
                 ; 0000 017B 		Error.byte=0; //обнулить все ошибки
                 ; 0000 017C 		ProgCRC=0;    //программное CRC выкл
                 ; 0000 017D 		TrState=0;    //предыдущей режим работы трансивера, необходимо для приема пакета
                 ; 0000 017E                   */
                 ; 0000 017F 		//reset();
                 ; 0000 0180 
                 ; 0000 0181 		unsigned char i;
                 ; 0000 0182         PORTB.0=0;      // Сброс трансивера перед инициализацией
000239 9722      	SBIW R28,2
00023a 931a      	ST   -Y,R17
                 ;	U -> Y+3
                 ;	dt -> Y+1
                 ;	i -> R17
00023b 98c0      	CBI  0x18,0
                 ; 0000 0183      delay_ms(10);
00023c e0ea      	LDI  R30,LOW(10)
00023d e0f0      	LDI  R31,HIGH(10)
00023e d406      	RCALL SUBOPT_0xF
                 ; 0000 0184      PORTB.0=1;
00023f 9ac0      	SBI  0x18,0
                 ; 0000 0185      delay_ms(5);
000240 e0e5      	LDI  R30,LOW(5)
000241 e0f0      	LDI  R31,HIGH(5)
000242 d402      	RCALL SUBOPT_0xF
                 ; 0000 0186 		for(i=0;i<30;i=i+3)				//инициализация кадра
000243 e010      	LDI  R17,LOW(0)
                 _0x49:
000244 311e      	CPI  R17,30
000245 f478      	BRSH _0x4A
                 ; 0000 0187 		{
                 ; 0000 0188 			dt.b[1]=tbl_frame[i+1];
000246 d41a      	RCALL SUBOPT_0x15
                +
000247 5de9     +SUBI R30 , LOW ( - 2 * _tbl_frame - ( 1 ) )
000248 4fff     +SBCI R31 , HIGH ( - 2 * _tbl_frame - ( 1 ) )
                 	__ADDW1FN _tbl_frame,1
000249 9004      	LPM  R0,Z
00024a 820a      	STD  Y+2,R0
                 ; 0000 0189 			dt.b[0]=tbl_frame[i+2];
00024b d415      	RCALL SUBOPT_0x15
                +
00024c 5de8     +SUBI R30 , LOW ( - 2 * _tbl_frame - ( 2 ) )
00024d 4fff     +SBCI R31 , HIGH ( - 2 * _tbl_frame - ( 2 ) )
                 	__ADDW1FN _tbl_frame,2
00024e 9004      	LPM  R0,Z
00024f 8209      	STD  Y+1,R0
                 ; 0000 018A 			TR24_Wrtie(tbl_frame[i],dt.data);
000250 d410      	RCALL SUBOPT_0x15
000251 d41d      	RCALL SUBOPT_0x19
000252 d421      	RCALL SUBOPT_0x1A
                 ; 0000 018B 		}
000253 5f1d      	SUBI R17,-LOW(3)
000254 cfef      	RJMP _0x49
                 _0x4A:
                 ; 0000 018C 
                 ; 0000 018D 		delay_ms(5);
000255 e0e5      	LDI  R30,LOW(5)
000256 e0f0      	LDI  R31,HIGH(5)
000257 d3ed      	RCALL SUBOPT_0xF
                 ; 0000 018E 		for(i=0;i<54;i=i+3)		       //инициализация передатчика
000258 e010      	LDI  R17,LOW(0)
                 _0x4C:
000259 3316      	CPI  R17,54
00025a f478      	BRSH _0x4D
                 ; 0000 018F 		{
                 ; 0000 0190 			dt.b[1]=tbl_rfinit[i+1];
00025b d405      	RCALL SUBOPT_0x15
                +
00025c 5beb     +SUBI R30 , LOW ( - 2 * _tbl_rfinit - ( 1 ) )
00025d 4fff     +SBCI R31 , HIGH ( - 2 * _tbl_rfinit - ( 1 ) )
                 	__ADDW1FN _tbl_rfinit,1
00025e 9004      	LPM  R0,Z
00025f 820a      	STD  Y+2,R0
                 ; 0000 0191 			dt.b[0]=tbl_rfinit[i+2];
000260 d400      	RCALL SUBOPT_0x15
                +
000261 5bea     +SUBI R30 , LOW ( - 2 * _tbl_rfinit - ( 2 ) )
000262 4fff     +SBCI R31 , HIGH ( - 2 * _tbl_rfinit - ( 2 ) )
                 	__ADDW1FN _tbl_rfinit,2
000263 9004      	LPM  R0,Z
000264 8209      	STD  Y+1,R0
                 ; 0000 0192 			TR24_Wrtie(tbl_rfinit[i],dt.data);
000265 d3fb      	RCALL SUBOPT_0x15
000266 d411      	RCALL SUBOPT_0x1B
000267 d40c      	RCALL SUBOPT_0x1A
                 ; 0000 0193 		}
000268 5f1d      	SUBI R17,-LOW(3)
000269 cfef      	RJMP _0x4C
                 _0x4D:
                 ; 0000 0194            Error='N';
00026a e4ee      	LDI  R30,LOW(78)
00026b 2e9e      	MOV  R9,R30
                 ; 0000 0195 		//Проверить правильность инициализации трансивера
                 ; 0000 0196             #asm("wdr")
00026c 95a8      	wdr
                 ; 0000 0197 		for(i=0;i<54;i=i+3)
00026d e010      	LDI  R17,LOW(0)
                 _0x4F:
00026e 3316      	CPI  R17,54
00026f f4a0      	BRSH _0x50
                 ; 0000 0198 		{
                 ; 0000 0199 			dt.data=TR24A_Read(tbl_rfinit[i]);
000270 d3f0      	RCALL SUBOPT_0x15
000271 d406      	RCALL SUBOPT_0x1B
000272 d40a      	RCALL SUBOPT_0x1C
                 ; 0000 019A 
                 ; 0000 019B 			if(dt.b[1]!=tbl_rfinit[i+1])
                +
000273 5beb     +SUBI R30 , LOW ( - 2 * _tbl_rfinit - ( 1 ) )
000274 4fff     +SBCI R31 , HIGH ( - 2 * _tbl_rfinit - ( 1 ) )
                 	__ADDW1FN _tbl_rfinit,1
000275 91e4      	LPM  R30,Z
000276 81aa      	LDD  R26,Y+2
000277 17ea      	CP   R30,R26
000278 f439      	BRNE _0xC5
                 ; 0000 019C 			{
                 ; 0000 019D 				Error='E';
                 ; 0000 019E 			}
                 ; 0000 019F 			else if(dt.b[0]!=tbl_rfinit[i+2])
000279 d3e7      	RCALL SUBOPT_0x15
                +
00027a 5bea     +SUBI R30 , LOW ( - 2 * _tbl_rfinit - ( 2 ) )
00027b 4fff     +SBCI R31 , HIGH ( - 2 * _tbl_rfinit - ( 2 ) )
                 	__ADDW1FN _tbl_rfinit,2
00027c 91e4      	LPM  R30,Z
00027d 81a9      	LDD  R26,Y+1
00027e 17ea      	CP   R30,R26
00027f f011      	BREQ _0x53
                 ; 0000 01A0 			{
                 ; 0000 01A1 				Error='E';
                 _0xC5:
000280 e4e5      	LDI  R30,LOW(69)
000281 2e9e      	MOV  R9,R30
                 ; 0000 01A2 			}
                 ; 0000 01A3 
                 ; 0000 01A4 		}
                 _0x53:
000282 5f1d      	SUBI R17,-LOW(3)
000283 cfea      	RJMP _0x4F
                 _0x50:
                 ; 0000 01A5             #asm("wdr")
000284 95a8      	wdr
                 ; 0000 01A6 		for(i=0;i<30;i=i+3)
000285 e010      	LDI  R17,LOW(0)
                 _0x55:
000286 311e      	CPI  R17,30
000287 f4a0      	BRSH _0x56
                 ; 0000 01A7 		{
                 ; 0000 01A8 			dt.data=TR24A_Read(tbl_frame[i]);
000288 d3d8      	RCALL SUBOPT_0x15
000289 d3e5      	RCALL SUBOPT_0x19
00028a d3f2      	RCALL SUBOPT_0x1C
                 ; 0000 01A9 
                 ; 0000 01AA 			if(dt.b[1]!=tbl_frame[i+1])
                +
00028b 5de9     +SUBI R30 , LOW ( - 2 * _tbl_frame - ( 1 ) )
00028c 4fff     +SBCI R31 , HIGH ( - 2 * _tbl_frame - ( 1 ) )
                 	__ADDW1FN _tbl_frame,1
00028d 91e4      	LPM  R30,Z
00028e 81aa      	LDD  R26,Y+2
00028f 17ea      	CP   R30,R26
000290 f439      	BRNE _0xC6
                 ; 0000 01AB 			{
                 ; 0000 01AC 				Error='E';
                 ; 0000 01AD 			}
                 ; 0000 01AE 			else if(dt.b[0]!=tbl_frame[i+2])
000291 d3cf      	RCALL SUBOPT_0x15
                +
000292 5de8     +SUBI R30 , LOW ( - 2 * _tbl_frame - ( 2 ) )
000293 4fff     +SBCI R31 , HIGH ( - 2 * _tbl_frame - ( 2 ) )
                 	__ADDW1FN _tbl_frame,2
000294 91e4      	LPM  R30,Z
000295 81a9      	LDD  R26,Y+1
000296 17ea      	CP   R30,R26
000297 f011      	BREQ _0x59
                 ; 0000 01AF 			{
                 ; 0000 01B0 				Error='E';
                 _0xC6:
000298 e4e5      	LDI  R30,LOW(69)
000299 2e9e      	MOV  R9,R30
                 ; 0000 01B1 			}
                 ; 0000 01B2 		}
                 _0x59:
00029a 5f1d      	SUBI R17,-LOW(3)
00029b cfea      	RJMP _0x55
                 _0x56:
                 ; 0000 01B3 
                 ; 0000 01B4 	}//end init
00029c 8118      	LDD  R17,Y+0
00029d c234      	RJMP _0x20C0001
                 ;//*************************************************************************************************
                 ;//Режим приема данных
                 ;	void TR24A_RX(void)
                 ; 0000 01B8 	{
                 _TR24A_RX:
                 ; 0000 01B9 		DATA buf;
                 ; 0000 01BA 
                 ; 0000 01BB         #asm("wdr")
00029e 9722      	SBIW R28,2
                 ;	buf -> Y+0
00029f 95a8      	wdr
                 ; 0000 01BC 		buf.data=TR24A_Read(0x07);
0002a0 d3e0      	RCALL SUBOPT_0x1D
0002a1 d3e2      	RCALL SUBOPT_0x1E
                 ; 0000 01BD 		buf.byte[1]=(SW<<1);
                 ; 0000 01BE 		buf.byte[0]=CH;
                 ; 0000 01BF 		buf.Bit.b8=0;
0002a2 7fee      	ANDI R30,0xFE
0002a3 83e9      	STD  Y+1,R30
                 ; 0000 01C0 		buf.Bit.b7=1;
0002a4 81e8      	LD   R30,Y
0002a5 68e0      	ORI  R30,0x80
0002a6 83e8      	ST   Y,R30
                 ; 0000 01C1 
                 ; 0000 01C2 		TR24_Wrtie(0x07,buf.data);  // переход в режим RX, задаем канал
0002a7 d3d9      	RCALL SUBOPT_0x1D
0002a8 d3e3      	RCALL SUBOPT_0x1F
                 ; 0000 01C3 		delay_us(10);
                +
0002a9 e08c     +LDI R24 , LOW ( 12 )
                +__DELAY_USB_LOOP :
0002aa 958a     +DEC R24
0002ab f7f1     +BRNE __DELAY_USB_LOOP
                 	__DELAY_USB 12
                 ; 0000 01C4 
                 ; 0000 01C5 	}//end ReciveMode
0002ac c057      	RJMP _0x20C0004
                 ;//*******************************************************************************************
                 ;//перейти в режим передачи данніх
                 ;	void TR24A_TX(void)
                 ; 0000 01C9 	{
                 _TR24A_TX:
                 ; 0000 01CA 		DATA buf;
                 ; 0000 01CB         #asm("wdr")
0002ad 9722      	SBIW R28,2
                 ;	buf -> Y+0
0002ae 95a8      	wdr
                 ; 0000 01CC 		buf.data=TR24A_Read(0x07);
0002af d3d1      	RCALL SUBOPT_0x1D
0002b0 d3d3      	RCALL SUBOPT_0x1E
                 ; 0000 01CD 		buf.byte[1]=(SW<<1);
                 ; 0000 01CE 		buf.byte[0]=CH;
                 ; 0000 01CF 		buf.Bit.b8=1;
0002b1 60e1      	ORI  R30,1
0002b2 83e9      	STD  Y+1,R30
                 ; 0000 01D0 		buf.Bit.b7=0;
0002b3 81e8      	LD   R30,Y
0002b4 77ef      	ANDI R30,0x7F
0002b5 83e8      	ST   Y,R30
                 ; 0000 01D1 
                 ; 0000 01D2 		TR24_Wrtie(0x07,buf.data);
0002b6 d3ca      	RCALL SUBOPT_0x1D
0002b7 d3d4      	RCALL SUBOPT_0x1F
                 ; 0000 01D3 
                 ; 0000 01D4 	}//end TransmitMode
0002b8 c04b      	RJMP _0x20C0004
                 ;//*********************************************************************************************
                 ;//Прием пакта
                 ;  unsigned char TR24A_RXPKT(void)
                 ; 0000 01D8   {
                 _TR24A_RXPKT:
                 ; 0000 01D9    unsigned char len; //Длинна пакета
                 ; 0000 01DA    unsigned char j;   //Счетчик
                 ; 0000 01DB 
                 ; 0000 01DC   PORTB.2=0;       // SPI_SS ON
0002b9 d463      	RCALL __SAVELOCR2
                 ;	len -> R17
                 ;	j -> R16
0002ba 98c2      	CBI  0x18,2
                 ; 0000 01DD    #asm("wdr")
0002bb 95a8      	wdr
                 ; 0000 01DE   SPI_SEND(0x50|(1<<7));   //reg80
0002bc ede0      	LDI  R30,LOW(208)
0002bd d3d2      	RCALL SUBOPT_0x20
                 ; 0000 01DF   delay_us(3);
                 ; 0000 01E0   len=SPI_SEND(0xFF);
0002be d3ad      	RCALL SUBOPT_0x18
0002bf 2f1e      	MOV  R17,R30
                 ; 0000 01E1   for(j=0;j<len;j++)  //получить пакет
0002c0 e000      	LDI  R16,LOW(0)
                 _0x5D:
0002c1 1701      	CP   R16,R17
0002c2 f468      	BRSH _0x5E
                 ; 0000 01E2 		{
                 ; 0000 01E3 			delay_us(3);
0002c3 d3d2      	RCALL SUBOPT_0x21
                 ; 0000 01E4 			SPI_buffer[j] = SPI_SEND(0xFF);
0002c4 2fe0      	MOV  R30,R16
0002c5 d343      	RCALL SUBOPT_0x0
0002c6 55e9      	SUBI R30,LOW(-_SPI_buffer)
0002c7 4ffe      	SBCI R31,HIGH(-_SPI_buffer)
0002c8 93ff      	PUSH R31
0002c9 93ef      	PUSH R30
0002ca d3a1      	RCALL SUBOPT_0x18
0002cb 91af      	POP  R26
0002cc 91bf      	POP  R27
0002cd 93ec      	ST   X,R30
                 ; 0000 01E5 		}
0002ce 5f0f      	SUBI R16,-1
0002cf cff1      	RJMP _0x5D
                 _0x5E:
                 ; 0000 01E6  PORTB.2=1;     // SPI_SS OFF
0002d0 9ac2      	SBI  0x18,2
                 ; 0000 01E7  return len;
0002d1 2fe1      	MOV  R30,R17
0002d2 d454      	RCALL __LOADLOCR2P
0002d3 9508      	RET
                 ; 0000 01E8 
                 ; 0000 01E9   }
                 ;//******************************************************************************************
                 ;   //Функция передачи пакета
                 ; void TR24A_TXPKT(void)
                 ; 0000 01ED  {
                 _TR24A_TXPKT:
                 ; 0000 01EE 
                 ; 0000 01EF     #asm("wdr")
0002d4 95a8      	wdr
                 ; 0000 01F0    TR24_Wrtie(0x52,0x8000);
0002d5 e5e2      	LDI  R30,LOW(82)
0002d6 93ea      	ST   -Y,R30
0002d7 e0e0      	LDI  R30,LOW(32768)
0002d8 e8f0      	LDI  R31,HIGH(32768)
0002d9 d33d      	RCALL SUBOPT_0x4
0002da df3c      	RCALL _TR24_Wrtie
                 ; 0000 01F1 
                 ; 0000 01F2       PORTB.2=0;       // SPI_SS ON
0002db 98c2      	CBI  0x18,2
                 ; 0000 01F3       delay_us(3);
0002dc d3b9      	RCALL SUBOPT_0x21
                 ; 0000 01F4       SPI_SEND(0x50);
0002dd e5e0      	LDI  R30,LOW(80)
0002de d3b1      	RCALL SUBOPT_0x20
                 ; 0000 01F5       delay_us(3);
                 ; 0000 01F6       SPI_SEND(pktlen);
0002df 924a      	ST   -Y,R4
0002e0 df30      	RCALL _SPI_SEND
                 ; 0000 01F7       for (i=0;i<pktlen;i++)
0002e1 d338      	RCALL SUBOPT_0x5
                 _0x64:
0002e2 2de4      	MOV  R30,R4
0002e3 01d3      	MOVW R26,R6
0002e4 d324      	RCALL SUBOPT_0x0
0002e5 17ae      	CP   R26,R30
0002e6 07bf      	CPC  R27,R31
0002e7 f450      	BRSH _0x65
                 ; 0000 01F8      {
                 ; 0000 01F9        delay_us(3);
0002e8 d3ad      	RCALL SUBOPT_0x21
                 ; 0000 01FA       SPI_SEND(SPI_buffer[i]);
0002e9 eaa7      	LDI  R26,LOW(_SPI_buffer)
0002ea e0b1      	LDI  R27,HIGH(_SPI_buffer)
0002eb d334      	RCALL SUBOPT_0x7
0002ec 91ec      	LD   R30,X
0002ed 93ea      	ST   -Y,R30
0002ee df22      	RCALL _SPI_SEND
                 ; 0000 01FB     };
0002ef d333      	RCALL SUBOPT_0x8
0002f0 9731      	SBIW R30,1
0002f1 cff0      	RJMP _0x64
                 _0x65:
                 ; 0000 01FC 
                 ; 0000 01FD       PORTB.2=1;       // SPI_SS OFF
0002f2 9ac2      	SBI  0x18,2
                 ; 0000 01FE 
                 ; 0000 01FF       delay_us(3);
0002f3 d3a2      	RCALL SUBOPT_0x21
                 ; 0000 0200        TR24A_TX();
0002f4 dfb8      	RCALL _TR24A_TX
                 ; 0000 0201  }
0002f5 9508      	RET
                 ;//********************************************************************************************
                 ;  // Запись строки в SPI буффер
                 ; void Write_SPI_buffer(flash char *str)
                 ; 0000 0205  {
                 _Write_SPI_buffer:
                 ; 0000 0206   i=0;
                 ;	*str -> Y+0
0002f6 d323      	RCALL SUBOPT_0x5
                 ; 0000 0207   while(*str)
                 _0x68:
0002f7 d313      	RCALL SUBOPT_0x1
0002f8 91e4      	LPM  R30,Z
0002f9 30e0      	CPI  R30,0
0002fa f041      	BREQ _0x6A
                 ; 0000 0208   {
                 ; 0000 0209   SPI_buffer[i++]=*str++;
0002fb d327      	RCALL SUBOPT_0x8
0002fc 9731      	SBIW R30,1
0002fd 55e9      	SUBI R30,LOW(-_SPI_buffer)
0002fe 4ffe      	SBCI R31,HIGH(-_SPI_buffer)
0002ff 01df      	MOVW R26,R30
000300 d30d      	RCALL SUBOPT_0x2
000301 93ec      	ST   X,R30
                 ; 0000 020A 
                 ; 0000 020B   }
000302 cff4      	RJMP _0x68
                 _0x6A:
                 ; 0000 020C   pktlen=i;
000303 2c46      	MOV  R4,R6
                 ; 0000 020D   }
                 _0x20C0004:
000304 9622      	ADIW R28,2
000305 9508      	RET
                 ;//********************************************************************************************
                 ; void USART_ON(void)   //Активация USART
                 ; 0000 0210   {
                 _USART_ON:
                 ; 0000 0211    PORTD.4=0;
000306 9894      	CBI  0x12,4
                 ; 0000 0212    PORTD.5=0;
000307 9895      	CBI  0x12,5
                 ; 0000 0213    while(PIND.6==1);
                 _0x6F:
000308 9986      	SBIC 0x10,6
000309 cffe      	RJMP _0x6F
                 ; 0000 0214   }
00030a 9508      	RET
                 ;//*******************************************************************************************
                 ; void USART_OFF(void)   //Деактивация USART
                 ; 0000 0217  {
                 _USART_OFF:
                 ; 0000 0218  PORTD.4=1;
00030b 9a94      	SBI  0x12,4
                 ; 0000 0219  PORTD.5=1;
00030c 9a95      	SBI  0x12,5
                 ; 0000 021A  }
00030d 9508      	RET
                 ;//********************************************************************************************
                 ;void RESET_MODEM(void)    // Сброс модема
                 ; 0000 021D  {LightDiode(3);
                 _RESET_MODEM:
00030e d38b      	RCALL SUBOPT_0x22
                 ; 0000 021E   do {
                 _0x77:
                 ; 0000 021F  //delay_ms(250);
                 ; 0000 0220   if (PINC.1==0)
00030f 9999      	SBIC 0x13,1
000310 c006      	RJMP _0x79
                 ; 0000 0221   {
                 ; 0000 0222   PORTC.0=0;       // Включение модема
000311 98a8      	CBI  0x15,0
                 ; 0000 0223   delay_ms(1000);
000312 d334      	RCALL SUBOPT_0x10
                 ; 0000 0224   PORTC.0=1;
000313 9aa8      	SBI  0x15,0
                 ; 0000 0225   delay_ms(250);
000314 efea      	LDI  R30,LOW(250)
000315 e0f0      	LDI  R31,HIGH(250)
000316 c005      	RJMP _0xC7
                 ; 0000 0226    }
                 ; 0000 0227 
                 ; 0000 0228    else
                 _0x79:
                 ; 0000 0229    {
                 ; 0000 022A     PORTC.2=0;       // Включение модема
000317 98aa      	CBI  0x15,2
                 ; 0000 022B   delay_ms(100);
000318 d33b      	RCALL SUBOPT_0x12
                 ; 0000 022C   PORTC.2=1;
000319 9aaa      	SBI  0x15,2
                 ; 0000 022D   delay_ms(1000);
00031a eee8      	LDI  R30,LOW(1000)
00031b e0f3      	LDI  R31,HIGH(1000)
                 _0xC7:
00031c 93fa      	ST   -Y,R31
00031d 93ea      	ST   -Y,R30
00031e d3bc      	RCALL _delay_ms
                 ; 0000 022E    }
                 ; 0000 022F 
                 ; 0000 0230     } while(PINC.1==0);   // Проверка включения модема
00031f 9b99      	SBIS 0x13,1
000320 cfee      	RJMP _0x77
                 ; 0000 0231        USART_ON();
000321 dfe4      	RCALL _USART_ON
                 ; 0000 0232 
                 ; 0000 0233     do{      SEND_Str("AT\r");  // Проверка ответа модема
                 _0x84:
                +
000322 efee     +LDI R30 , LOW ( 2 * _0x0 + ( 114 ) )
000323 e0f0     +LDI R31 , HIGH ( 2 * _0x0 + ( 114 ) )
                 	__POINTW1FN _0x0,114
000324 d378      	RCALL SUBOPT_0x23
                 ; 0000 0234          #asm("wdr")
000325 95a8      	wdr
                 ; 0000 0235       } while(TEST_OK()==0)  ;
000326 de40      	RCALL _TEST_OK
000327 30e0      	CPI  R30,0
000328 f3c9      	BREQ _0x84
                 ; 0000 0236                  /*
                 ; 0000 0237 
                 ; 0000 0238     SEND_Str("AT+CREG?\r");
                 ; 0000 0239          delay_ms(100);
                 ; 0000 023A        SEND_Str("HER?\r");
                 ; 0000 023B        delay_ms(1000);
                 ; 0000 023C          for( i=0;i<64;i++) {eebuf[i]=rx_buffer[i];}
                 ; 0000 023D           LightDiode(0);
                 ; 0000 023E           while(1){  #asm("wdr") }
                 ; 0000 023F                     */
                 ; 0000 0240  do{   SEND_Str("AT+CREG?\r");   // Проверка регистрации в сети
                 _0x87:
                +
000329 e0e2     +LDI R30 , LOW ( 2 * _0x0 + ( 118 ) )
00032a e0f1     +LDI R31 , HIGH ( 2 * _0x0 + ( 118 ) )
                 	__POINTW1FN _0x0,118
00032b d371      	RCALL SUBOPT_0x23
                 ; 0000 0241         #asm("wdr")
00032c 95a8      	wdr
                 ; 0000 0242       delay_ms(1000);
00032d d319      	RCALL SUBOPT_0x10
                 ; 0000 0243       #asm("wdr")
00032e 95a8      	wdr
                 ; 0000 0244       }while (REG_NET()!='1') ;
00032f de46      	RCALL _REG_NET
000330 33e1      	CPI  R30,LOW(0x31)
000331 f7b9      	BRNE _0x87
                 ; 0000 0245 
                 ; 0000 0246      // USART_OFF();
                 ; 0000 0247 
                 ; 0000 0248  }
000332 9508      	RET
                 ;//********************************************************************************************
                 ;void RESET_TR24A(void)   // Перезагрузка и инициализация трансивера
                 ; 0000 024B {
                 _RESET_TR24A:
                 ; 0000 024C  LightDiode(3);
000333 d366      	RCALL SUBOPT_0x22
                 ; 0000 024D  do { TR24A_INIT();  // Инициализация трансивера
                 _0x8A:
000334 df04      	RCALL _TR24A_INIT
                 ; 0000 024E  #asm("wdr")
000335 95a8      	wdr
                 ; 0000 024F     }while(Error=='E') ;   // Если инициализация ошибочна возврат к сбросу
000336 e4e5      	LDI  R30,LOW(69)
000337 15e9      	CP   R30,R9
000338 f3d9      	BREQ _0x8A
                 ; 0000 0250 }
000339 9508      	RET
                 ;
                 ;//============================================================================================
                 ;// Прерывание по приему пакета
                 ;// External Interrupt 1 service routine
                 ;interrupt [EXT_INT1] void ext_int1_isr(void)
                 ; 0000 0256 {
                 _ext_int1_isr:
00033a d364      	RCALL SUBOPT_0x24
                 ; 0000 0257      GICR=0x00; //Запрет внешних прерываний
00033b e0e0      	LDI  R30,LOW(0)
00033c bfeb      	OUT  0x3B,R30
                 ; 0000 0258 
                 ; 0000 0259  pktlen=TR24A_RXPKT();
00033d df7b      	RCALL _TR24A_RXPKT
00033e 2e4e      	MOV  R4,R30
                 ; 0000 025A 
                 ; 0000 025B if (pktlen!=0)
00033f 2044      	TST  R4
000340 f139      	BREQ _0x8C
                 ; 0000 025C   {
                 ; 0000 025D 
                 ; 0000 025E         #asm("wdr")
000341 95a8      	wdr
                 ; 0000 025F  if (strstr(SPI_buffer,"BRELOK")!=NULL) {Write_SPI_buffer("DEVICE");}
000342 eae7      	LDI  R30,LOW(_SPI_buffer)
000343 e0f1      	LDI  R31,HIGH(_SPI_buffer)
000344 d2d2      	RCALL SUBOPT_0x4
                +
000345 e8ea     +LDI R30 , LOW ( _0x8E + ( 0 ) )
000346 e0f1     +LDI R31 , HIGH ( _0x8E + ( 0 ) )
                 	__POINTW1MN _0x8E,0
000347 d2ef      	RCALL SUBOPT_0xC
000348 9730      	SBIW R30,0
000349 f019      	BREQ _0x8D
                +
00034a e1e3     +LDI R30 , LOW ( 2 * _0x0 + ( 135 ) )
00034b e0f1     +LDI R31 , HIGH ( 2 * _0x0 + ( 135 ) )
                 	__POINTW1FN _0x0,135
00034c c015      	RJMP _0xC8
                 ; 0000 0260  else {
                 _0x8D:
                 ; 0000 0261    if (strstr(SPI_buffer,"CHANGE")!=NULL)
00034d eae7      	LDI  R30,LOW(_SPI_buffer)
00034e e0f1      	LDI  R31,HIGH(_SPI_buffer)
00034f d2c7      	RCALL SUBOPT_0x4
                +
000350 e9e1     +LDI R30 , LOW ( _0x8E + ( 7 ) )
000351 e0f1     +LDI R31 , HIGH ( _0x8E + ( 7 ) )
                 	__POINTW1MN _0x8E,7
000352 d2e4      	RCALL SUBOPT_0xC
000353 9730      	SBIW R30,0
000354 f031      	BREQ _0x90
                 ; 0000 0262    {
                 ; 0000 0263     if(z==0) {z=1;}
000355 2055      	TST  R5
000356 f419      	BRNE _0x91
000357 e0e1      	LDI  R30,LOW(1)
000358 2e5e      	MOV  R5,R30
                 ; 0000 0264     else {z=0;}
000359 c001      	RJMP _0x92
                 _0x91:
00035a 2455      	CLR  R5
                 _0x92:
                 ; 0000 0265    }
                 ; 0000 0266 
                 ; 0000 0267    if(z==0)
                 _0x90:
00035b 2055      	TST  R5
00035c f419      	BRNE _0x93
                 ; 0000 0268    {
                 ; 0000 0269     Write_SPI_buffer("Status-IDLE");
                +
00035d e2e1     +LDI R30 , LOW ( 2 * _0x0 + ( 149 ) )
00035e e0f1     +LDI R31 , HIGH ( 2 * _0x0 + ( 149 ) )
                 	__POINTW1FN _0x0,149
00035f c002      	RJMP _0xC8
                 ; 0000 026A    }
                 ; 0000 026B 
                 ; 0000 026C   else
                 _0x93:
                 ; 0000 026D    {
                 ; 0000 026E     Write_SPI_buffer("Status-SECUR");
                +
000360 e2ed     +LDI R30 , LOW ( 2 * _0x0 + ( 161 ) )
000361 e0f1     +LDI R31 , HIGH ( 2 * _0x0 + ( 161 ) )
                 	__POINTW1FN _0x0,161
                 _0xC8:
000362 93fa      	ST   -Y,R31
000363 93ea      	ST   -Y,R30
000364 df91      	RCALL _Write_SPI_buffer
                 ; 0000 026F    }
                 ; 0000 0270    }
                 ; 0000 0271    // delay_ms(30);
                 ; 0000 0272     TR24A_TXPKT();
000365 df6e      	RCALL _TR24A_TXPKT
                 ; 0000 0273     while(PIND.3==0);
                 _0x95:
000366 9b83      	SBIS 0x10,3
000367 cffe      	RJMP _0x95
                 ; 0000 0274 
                 ; 0000 0275 
                 ; 0000 0276 }
                 ; 0000 0277 
                 ; 0000 0278   GIFR=0x80;    //Сброс флага прерывания
                 _0x8C:
000368 e8e0      	LDI  R30,LOW(128)
000369 bfea      	OUT  0x3A,R30
                 ; 0000 0279   GICR=0x80;   // Разрешение прерывания
00036a bfeb      	OUT  0x3B,R30
                 ; 0000 027A 
                 ; 0000 027B  TR24A_RX();              // Преход в режим RX
00036b df32      	RCALL _TR24A_RX
                 ; 0000 027C }
00036c c048      	RJMP _0xCC
                 
                 	.DSEG
                 _0x8E:
00018a           	.BYTE 0xE
                 ;//*******************************************************************************************
                 ;
                 ;// Функция обработки прерывания по приему символа USART
                 ;interrupt [USART_RXC] void usart_rx_isr(void)
                 ; 0000 0281 {
                 
                 	.CSEG
                 _usart_rx_isr:
00036d 93ea      	ST   -Y,R30
00036e 93fa      	ST   -Y,R31
00036f b7ef      	IN   R30,SREG
000370 93ea      	ST   -Y,R30
                 ; 0000 0282 char status,data;
                 ; 0000 0283 status=UCSRA;
000371 d3ab      	RCALL __SAVELOCR2
                 ;	status -> R17
                 ;	data -> R16
000372 b11b      	IN   R17,11
                 ; 0000 0284 data=UDR;
000373 b10c      	IN   R16,12
                 ; 0000 0285 if ((status & (FRAMING_ERROR | PARITY_ERROR | DATA_OVERRUN))==0)
000374 2fe1      	MOV  R30,R17
000375 71ec      	ANDI R30,LOW(0x1C)
000376 f461      	BRNE _0x98
                 ; 0000 0286    {
                 ; 0000 0287    if (rx_wr_index != RX_BUFFER_SIZE) rx_buffer[rx_wr_index++]=data;
000377 e0e0      	LDI  R30,LOW(512)
000378 e0f2      	LDI  R31,HIGH(512)
000379 15ea      	CP   R30,R10
00037a 05fb      	CPC  R31,R11
00037b f039      	BREQ _0x99
00037c 01f5      	MOVW R30,R10
00037d 9631      	ADIW R30,1
00037e 015f      	MOVW R10,R30
00037f 9731      	SBIW R30,1
000380 51e9      	SUBI R30,LOW(-_rx_buffer)
000381 4ffe      	SBCI R31,HIGH(-_rx_buffer)
000382 8300      	ST   Z,R16
                 ; 0000 0288 
                 ; 0000 0289       }
                 _0x99:
                 ; 0000 028A    }
                 _0x98:
000383 d3a3      	RCALL __LOADLOCR2P
000384 91e9      	LD   R30,Y+
000385 bfef      	OUT  SREG,R30
000386 91f9      	LD   R31,Y+
000387 91e9      	LD   R30,Y+
000388 9518      	RETI
                 ;
                 ; //*****************************************************************************************
                 ; // Прерывание по таймеру производит тест системы
                 ;
                 ; // Timer1 overflow interrupt service routine
                 ;interrupt [TIM1_OVF] void timer1_ovf_isr(void)
                 ; 0000 0291 {
                 _timer1_ovf_isr:
000389 d315      	RCALL SUBOPT_0x24
                 ; 0000 0292 union U
                 ; 0000 0293 		{
                 ; 0000 0294 			unsigned int buf;
                 ; 0000 0295 			unsigned char b[2];
                 ; 0000 0296 		};
                 ; 0000 0297            union U stat;
                 ; 0000 0298 TIMSK=0x00;
00038a 9722      	SBIW R28,2
                 ;	U -> Y+2
                 ;	stat -> Y+0
00038b e0e0      	LDI  R30,LOW(0)
00038c bfe9      	OUT  0x39,R30
                 ; 0000 0299 #asm("sei")
00038d 9478      	sei
                 ; 0000 029A //LightDiode(0);
                 ; 0000 029B  USART_ON() ; //  Активация USART
00038e df77      	RCALL _USART_ON
                 ; 0000 029C 
                 ; 0000 029D 
                 ; 0000 029E  SEND_Str("AT+CREG?\r");   // Проверка регистрации в сети
                +
00038f e0e2     +LDI R30 , LOW ( 2 * _0x0 + ( 118 ) )
000390 e0f1     +LDI R31 , HIGH ( 2 * _0x0 + ( 118 ) )
                 	__POINTW1FN _0x0,118
000391 d30b      	RCALL SUBOPT_0x23
                 ; 0000 029F 
                 ; 0000 02A0  if (REG_NET()!='1')
000392 dde3      	RCALL _REG_NET
000393 33e1      	CPI  R30,LOW(0x31)
000394 f029      	BREQ _0x9A
                 ; 0000 02A1    {
                 ; 0000 02A2    TCCR1B=0x00;
000395 e0e0      	LDI  R30,LOW(0)
000396 bdee      	OUT  0x2E,R30
                 ; 0000 02A3    #asm("wdr")
000397 95a8      	wdr
                 ; 0000 02A4     RESET_MODEM();
000398 df75      	RCALL _RESET_MODEM
                 ; 0000 02A5    #asm("wdr")
000399 95a8      	wdr
                 ; 0000 02A6    }
                 ; 0000 02A7    delay_ms(30);
                 _0x9A:
00039a e1ee      	LDI  R30,LOW(30)
00039b e0f0      	LDI  R31,HIGH(30)
00039c d2a8      	RCALL SUBOPT_0xF
                 ; 0000 02A8    if(COUNT>=10)
00039d e0ad      	LDI  R26,LOW(_COUNT)
00039e e0b0      	LDI  R27,HIGH(_COUNT)
00039f d35c      	RCALL __EEPROMRDB
0003a0 30ea      	CPI  R30,LOW(0xA)
0003a1 f028      	BRLO _0x9B
                 ; 0000 02A9            {BALLANSE();
0003a2 de0f      	RCALL _BALLANSE
                 ; 0000 02AA             COUNT=0;}
0003a3 e0ad      	LDI  R26,LOW(_COUNT)
0003a4 e0b0      	LDI  R27,HIGH(_COUNT)
0003a5 e0e0      	LDI  R30,LOW(0)
0003a6 d361      	RCALL __EEPROMWRB
                 ; 0000 02AB   USART_OFF() ; //  Дективация USART
                 _0x9B:
0003a7 df63      	RCALL _USART_OFF
                 ; 0000 02AC 
                 ; 0000 02AD  stat.buf=TR24A_Read(0x40);
0003a8 e4e0      	LDI  R30,LOW(64)
0003a9 93ea      	ST   -Y,R30
0003aa de7b      	RCALL _TR24A_Read
0003ab d2b7      	RCALL SUBOPT_0x16
                 ; 0000 02AE  if(stat.b[1]!=0xD0)
0003ac 81a9      	LDD  R26,Y+1
0003ad 3da0      	CPI  R26,LOW(0xD0)
0003ae f021      	BREQ _0x9C
                 ; 0000 02AF  {
                 ; 0000 02B0   TCCR1B=0x00;
0003af e0e0      	LDI  R30,LOW(0)
0003b0 bdee      	OUT  0x2E,R30
                 ; 0000 02B1   RESET_TR24A();
0003b1 df81      	RCALL _RESET_TR24A
                 ; 0000 02B2   TR24A_RX();              // Преход в режим RX
0003b2 deeb      	RCALL _TR24A_RX
                 ; 0000 02B3  }
                 ; 0000 02B4 
                 ; 0000 02B5  TIMSK=0x04;
                 _0x9C:
0003b3 d2f9      	RCALL SUBOPT_0x25
                 ; 0000 02B6  TCCR1B=0x05;
                 ; 0000 02B7 }
0003b4 9622      	ADIW R28,2
                 _0xCC:
0003b5 91e9      	LD   R30,Y+
0003b6 bfef      	OUT  SREG,R30
0003b7 91f9      	LD   R31,Y+
0003b8 91e9      	LD   R30,Y+
0003b9 91b9      	LD   R27,Y+
0003ba 91a9      	LD   R26,Y+
0003bb 9199      	LD   R25,Y+
0003bc 9189      	LD   R24,Y+
0003bd 9179      	LD   R23,Y+
0003be 9169      	LD   R22,Y+
0003bf 90f9      	LD   R15,Y+
0003c0 9019      	LD   R1,Y+
0003c1 9009      	LD   R0,Y+
0003c2 9518      	RETI
                 ;//=============================================================================================
                 ;//*****************************ОСНОВНАЯ ФУНКЦИЯ ПРОГРАММЫ*************************************
                 ;//===============================================================================================
                 ;
                 ;void main(void)
                 ; 0000 02BD {
                 _main:
                 ; 0000 02BE // Declare your local variables here
                 ; 0000 02BF 
                 ; 0000 02C0 // Input/Output Ports initialization
                 ; 0000 02C1 // Port B initialization
                 ; 0000 02C2 // Func7=In Func6=In Func5=Out Func4=In Func3=Out Func2=Out Func1=In Func0=Out
                 ; 0000 02C3 // State7=T State6=T State5=0 State4=T State3=0 State2=1 State1=T State0=1
                 ; 0000 02C4 PORTB=0x05;
0003c3 e0e5      	LDI  R30,LOW(5)
0003c4 bbe8      	OUT  0x18,R30
                 ; 0000 02C5 DDRB=0x2D;
0003c5 e2ed      	LDI  R30,LOW(45)
0003c6 bbe7      	OUT  0x17,R30
                 ; 0000 02C6 
                 ; 0000 02C7 // Port C initialization
                 ; 0000 02C8 // Func6=In Func5=Out Func4=Out Func3=In Func2=Out Func1=In Func0=Out
                 ; 0000 02C9 // State6=T State5=0 State4=0 State3=T State2=1 State1=T State0=1
                 ; 0000 02CA PORTC=0x05;
0003c7 e0e5      	LDI  R30,LOW(5)
0003c8 bbe5      	OUT  0x15,R30
                 ; 0000 02CB DDRC=0x35;
0003c9 e3e5      	LDI  R30,LOW(53)
0003ca bbe4      	OUT  0x14,R30
                 ; 0000 02CC 
                 ; 0000 02CD // Port D initialization
                 ; 0000 02CE // Func7=In Func6=In Func5=Out Func4=Out Func3=In Func2=In Func1=In Func0=In
                 ; 0000 02CF // State7=T State6=T State5=1 State4=1 State3=T State2=P State1=T State0=T
                 ; 0000 02D0 PORTD=0x34;
0003cb e3e4      	LDI  R30,LOW(52)
0003cc bbe2      	OUT  0x12,R30
                 ; 0000 02D1 DDRD=0x30;
0003cd e3e0      	LDI  R30,LOW(48)
0003ce bbe1      	OUT  0x11,R30
                 ; 0000 02D2 
                 ; 0000 02D3 // Timer/Counter 0 initialization
                 ; 0000 02D4 // Clock source: System Clock
                 ; 0000 02D5 // Clock value: Timer 0 Stopped
                 ; 0000 02D6 TCCR0=0x00;
0003cf e0e0      	LDI  R30,LOW(0)
0003d0 bfe3      	OUT  0x33,R30
                 ; 0000 02D7 TCNT0=0x00;
0003d1 bfe2      	OUT  0x32,R30
                 ; 0000 02D8 
                 ; 0000 02D9 // Timer/Counter 1 initialization
                 ; 0000 02DA // Clock source: System Clock
                 ; 0000 02DB // Clock value: 3,600 kHz
                 ; 0000 02DC // Mode: Normal top=0xFFFF
                 ; 0000 02DD // OC1A output: Discon.
                 ; 0000 02DE // OC1B output: Discon.
                 ; 0000 02DF // Noise Canceler: Off
                 ; 0000 02E0 // Input Capture on Falling Edge
                 ; 0000 02E1 // Timer1 Overflow Interrupt: On
                 ; 0000 02E2 // Input Capture Interrupt: Off
                 ; 0000 02E3 // Compare A Match Interrupt: Off
                 ; 0000 02E4 // Compare B Match Interrupt: Off
                 ; 0000 02E5 TCCR1A=0x00;
0003d2 bdef      	OUT  0x2F,R30
                 ; 0000 02E6 TCCR1B=0x00;
0003d3 bdee      	OUT  0x2E,R30
                 ; 0000 02E7 TCNT1H=0x00;
0003d4 bded      	OUT  0x2D,R30
                 ; 0000 02E8 TCNT1L=0x00;
0003d5 bdec      	OUT  0x2C,R30
                 ; 0000 02E9 ICR1H=0x00;
0003d6 bde7      	OUT  0x27,R30
                 ; 0000 02EA ICR1L=0x00;
0003d7 bde6      	OUT  0x26,R30
                 ; 0000 02EB OCR1AH=0x00;
0003d8 bdeb      	OUT  0x2B,R30
                 ; 0000 02EC OCR1AL=0x00;
0003d9 bdea      	OUT  0x2A,R30
                 ; 0000 02ED OCR1BH=0x00;
0003da bde9      	OUT  0x29,R30
                 ; 0000 02EE OCR1BL=0x00;
0003db bde8      	OUT  0x28,R30
                 ; 0000 02EF 
                 ; 0000 02F0 // Timer/Counter 2 initialization
                 ; 0000 02F1 // Clock source: System Clock
                 ; 0000 02F2 // Clock value: Timer2 Stopped
                 ; 0000 02F3 // Mode: Normal top=0xFF
                 ; 0000 02F4 // OC2 output: Disconnected
                 ; 0000 02F5 ASSR=0x00;
0003dc bde2      	OUT  0x22,R30
                 ; 0000 02F6 TCCR2=0x00;
0003dd bde5      	OUT  0x25,R30
                 ; 0000 02F7 TCNT2=0x00;
0003de bde4      	OUT  0x24,R30
                 ; 0000 02F8 OCR2=0x00;
0003df bde3      	OUT  0x23,R30
                 ; 0000 02F9 
                 ; 0000 02FA // External Interrupt(s) initialization
                 ; 0000 02FB // INT0: Off
                 ; 0000 02FC // INT1: On
                 ; 0000 02FD // INT1 Mode: Rising Edge
                 ; 0000 02FE GICR|=0x80;
0003e0 b7eb      	IN   R30,0x3B
0003e1 68e0      	ORI  R30,0x80
0003e2 bfeb      	OUT  0x3B,R30
                 ; 0000 02FF MCUCR=0x0C;
0003e3 e0ec      	LDI  R30,LOW(12)
0003e4 bfe5      	OUT  0x35,R30
                 ; 0000 0300 GIFR=0x80;
0003e5 e8e0      	LDI  R30,LOW(128)
0003e6 bfea      	OUT  0x3A,R30
                 ; 0000 0301 
                 ; 0000 0302 // Timer(s)/Counter(s) Interrupt(s) initialization
                 ; 0000 0303 TIMSK=0x00;
0003e7 e0e0      	LDI  R30,LOW(0)
0003e8 bfe9      	OUT  0x39,R30
                 ; 0000 0304 
                 ; 0000 0305 // USART initialization
                 ; 0000 0306 // Communication Parameters: 8 Data, 1 Stop, No Parity
                 ; 0000 0307 // USART Receiver: On
                 ; 0000 0308 // USART Transmitter: On
                 ; 0000 0309 // USART Mode: Asynchronous
                 ; 0000 030A // USART Baud Rate: 115200
                 ; 0000 030B UCSRA=0x00;
0003e9 b9eb      	OUT  0xB,R30
                 ; 0000 030C UCSRB=0x98;
0003ea e9e8      	LDI  R30,LOW(152)
0003eb b9ea      	OUT  0xA,R30
                 ; 0000 030D UCSRC=0x86;
0003ec e8e6      	LDI  R30,LOW(134)
0003ed bde0      	OUT  0x20,R30
                 ; 0000 030E UBRRH=0x00;
0003ee e0e0      	LDI  R30,LOW(0)
0003ef bde0      	OUT  0x20,R30
                 ; 0000 030F UBRRL=0x01;
0003f0 e0e1      	LDI  R30,LOW(1)
0003f1 b9e9      	OUT  0x9,R30
                 ; 0000 0310 
                 ; 0000 0311 // Analog Comparator initialization
                 ; 0000 0312 // Analog Comparator: Off
                 ; 0000 0313 // Analog Comparator Input Capture by Timer/Counter 1: Off
                 ; 0000 0314 ACSR=0x80;
0003f2 e8e0      	LDI  R30,LOW(128)
0003f3 b9e8      	OUT  0x8,R30
                 ; 0000 0315 SFIOR=0x00;
0003f4 e0e0      	LDI  R30,LOW(0)
0003f5 bfe0      	OUT  0x30,R30
                 ; 0000 0316 
                 ; 0000 0317 // ADC initialization
                 ; 0000 0318 // ADC disabled
                 ; 0000 0319 ADCSRA=0x00;
0003f6 b9e6      	OUT  0x6,R30
                 ; 0000 031A 
                 ; 0000 031B // SPI initialization
                 ; 0000 031C // SPI Type: Master
                 ; 0000 031D // SPI Clock Rate: 28,800 kHz
                 ; 0000 031E // SPI Clock Phase: Cycle Half
                 ; 0000 031F // SPI Clock Polarity: Low
                 ; 0000 0320 // SPI Data Order: MSB First
                 ; 0000 0321 SPCR=0x57;
0003f7 e5e7      	LDI  R30,LOW(87)
0003f8 b9ed      	OUT  0xD,R30
                 ; 0000 0322 SPSR=0x00;
0003f9 e0e0      	LDI  R30,LOW(0)
0003fa b9ee      	OUT  0xE,R30
                 ; 0000 0323 
                 ; 0000 0324 // TWI initialization
                 ; 0000 0325 // TWI disabled
                 ; 0000 0326 TWCR=0x00;
0003fb bfe6      	OUT  0x36,R30
                 ; 0000 0327 // Watchdog Timer initialization
                 ; 0000 0328 // Watchdog Timer Prescaler: OSC/2048k
                 ; 0000 0329 #pragma optsize-
                 ; 0000 032A WDTCR=0x1F;
0003fc e1ef      	LDI  R30,LOW(31)
0003fd bde1      	OUT  0x21,R30
                 ; 0000 032B WDTCR=0x0F;
0003fe e0ef      	LDI  R30,LOW(15)
0003ff bde1      	OUT  0x21,R30
                 ; 0000 032C #ifdef _OPTIMIZE_SIZE_
                 ; 0000 032D #pragma optsize+
                 ; 0000 032E #endif
                 ; 0000 032F 
                 ; 0000 0330  // Global enable interrupts
                 ; 0000 0331 #asm("sei")
000400 9478      	sei
                 ; 0000 0332 #asm("wdr")
000401 95a8      	wdr
                 ; 0000 0333 LightDiode(3);    //Зажечь светодиод
000402 d297      	RCALL SUBOPT_0x22
                 ; 0000 0334 /************** ******************* АКТИВАЦИЯ МОДЕМА*****************************************/
                 ; 0000 0335 
                 ; 0000 0336  RESET_MODEM();
000403 df0a      	RCALL _RESET_MODEM
                 ; 0000 0337 
                 ; 0000 0338  #asm("wdr")
000404 95a8      	wdr
                 ; 0000 0339   USART_ON() ; //  Активация USART
000405 df00      	RCALL _USART_ON
                 ; 0000 033A 
                 ; 0000 033B  do{     SEND_Str("AT+CPBF=\"N\"\r");  // Считывание телефонного номера с SIM карты
                 _0x9E:
                +
000406 e3ea     +LDI R30 , LOW ( 2 * _0x0 + ( 174 ) )
000407 e0f1     +LDI R31 , HIGH ( 2 * _0x0 + ( 174 ) )
                 	__POINTW1FN _0x0,174
000408 d294      	RCALL SUBOPT_0x23
                 ; 0000 033C        #asm("wdr")
000409 95a8      	wdr
                 ; 0000 033D       } while(SET_NR()==0);      // Преобразование номера в PDU формат
00040a dd84      	RCALL _SET_NR
00040b 30e0      	CPI  R30,0
00040c f3c9      	BREQ _0x9E
                 ; 0000 033E 
                 ; 0000 033F   do{ SEND_Str("AT+COPS?\r");
                 _0xA1:
                +
00040d e4e7     +LDI R30 , LOW ( 2 * _0x0 + ( 187 ) )
00040e e0f1     +LDI R31 , HIGH ( 2 * _0x0 + ( 187 ) )
                 	__POINTW1FN _0x0,187
00040f d28d      	RCALL SUBOPT_0x23
                 ; 0000 0340   delay_ms(50);
000410 e3e2      	LDI  R30,LOW(50)
000411 e0f0      	LDI  R31,HIGH(50)
000412 d232      	RCALL SUBOPT_0xF
                 ; 0000 0341     #asm("wdr")
000413 95a8      	wdr
                 ; 0000 0342   }while(strstr(rx_buffer, "+COPS:")==NULL);
000414 d21f      	RCALL SUBOPT_0xB
                +
000415 e9e8     +LDI R30 , LOW ( _0xA3 + ( 0 ) )
000416 e0f1     +LDI R31 , HIGH ( _0xA3 + ( 0 ) )
                 	__POINTW1MN _0xA3,0
000417 d21f      	RCALL SUBOPT_0xC
000418 9730      	SBIW R30,0
000419 f399      	BREQ _0xA1
                 ; 0000 0343  if( strstr(rx_buffer, "Beeline")!=NULL ) OP=1;
00041a d219      	RCALL SUBOPT_0xB
                +
00041b e9ef     +LDI R30 , LOW ( _0xA3 + ( 7 ) )
00041c e0f1     +LDI R31 , HIGH ( _0xA3 + ( 7 ) )
                 	__POINTW1MN _0xA3,7
00041d d219      	RCALL SUBOPT_0xC
00041e 9730      	SBIW R30,0
00041f f021      	BREQ _0xA4
000420 e0a0      	LDI  R26,LOW(_OP)
000421 e0b0      	LDI  R27,HIGH(_OP)
000422 e0e1      	LDI  R30,LOW(1)
000423 c003      	RJMP _0xC9
                 ; 0000 0344   else OP=0;
                 _0xA4:
000424 e0a0      	LDI  R26,LOW(_OP)
000425 e0b0      	LDI  R27,HIGH(_OP)
000426 e0e0      	LDI  R30,LOW(0)
                 _0xC9:
000427 d2e0      	RCALL __EEPROMWRB
                 ; 0000 0345    CLEAR_BUF();
000428 dd2e      	RCALL _CLEAR_BUF
                 ; 0000 0346   USART_OFF() ;  //  Дективация USART
000429 dee1      	RCALL _USART_OFF
                 ; 0000 0347   #asm("wdr")
00042a 95a8      	wdr
                 ; 0000 0348 //==========================================================================================
                 ; 0000 0349 //*************************АКТИВАЦИЯ ТРАНСИВЕРА**********************************************
                 ; 0000 034A   RESET_TR24A();
00042b df07      	RCALL _RESET_TR24A
                 ; 0000 034B   TR24A_RX();              // Преход в режим RX
00042c de71      	RCALL _TR24A_RX
                 ; 0000 034C 
                 ; 0000 034D 
                 ; 0000 034E //============================================================================================
                 ; 0000 034F  TIMSK=0x04;
00042d d27f      	RCALL SUBOPT_0x25
                 ; 0000 0350  TCCR1B=0x05;
                 ; 0000 0351  z=1; // Включение режима охраны
00042e e0e1      	LDI  R30,LOW(1)
00042f 2e5e      	MOV  R5,R30
                 ; 0000 0352 
                 ; 0000 0353 
                 ; 0000 0354 while (1)
                 _0xA6:
                 ; 0000 0355       {
                 ; 0000 0356 
                 ; 0000 0357 mx:      while((PIND.2==1)||(z==0))  // Цикл пока дверь открыта
                 _0xA9:
                 _0xAA:
000430 9982      	SBIC 0x10,2
000431 c003      	RJMP _0xAD
000432 e0e0      	LDI  R30,LOW(0)
000433 15e5      	CP   R30,R5
000434 f449      	BRNE _0xAC
                 _0xAD:
                 ; 0000 0358        { #asm("wdr")
000435 95a8      	wdr
                 ; 0000 0359        if (z==0){LightDiode(0);}
000436 2055      	TST  R5
000437 f411      	BRNE _0xAF
000438 e0e0      	LDI  R30,LOW(0)
000439 c001      	RJMP _0xCA
                 ; 0000 035A        else {LightDiode(2);}
                 _0xAF:
00043a e0e2      	LDI  R30,LOW(2)
                 _0xCA:
00043b 93ea      	ST   -Y,R30
00043c dcee      	RCALL _LightDiode
                 ; 0000 035B        }
00043d cff2      	RJMP _0xAA
                 _0xAC:
                 ; 0000 035C        delay_ms(100);
00043e d215      	RCALL SUBOPT_0x12
                 ; 0000 035D 
                 ; 0000 035E        if(PIND.2==1) goto mx;
00043f 9982      	SBIC 0x10,2
000440 cfef      	RJMP _0xA9
                 ; 0000 035F my:       while((PIND.2==0) || (z==0) )           // Цикл пока дверь закрыта
                 _0xB2:
                 _0xB3:
000441 e0a0      	LDI  R26,0
000442 9982      	SBIC 0x10,2
000443 e0a1      	LDI  R26,1
000444 30a0      	CPI  R26,LOW(0x0)
000445 f019      	BREQ _0xB6
000446 e0e0      	LDI  R30,LOW(0)
000447 15e5      	CP   R30,R5
000448 f449      	BRNE _0xB5
                 _0xB6:
                 ; 0000 0360        {   #asm("wdr")
000449 95a8      	wdr
                 ; 0000 0361        if (z==0){LightDiode(0);}
00044a 2055      	TST  R5
00044b f411      	BRNE _0xB8
00044c e0e0      	LDI  R30,LOW(0)
00044d c001      	RJMP _0xCB
                 ; 0000 0362        else {LightDiode(1);}
                 _0xB8:
00044e e0e1      	LDI  R30,LOW(1)
                 _0xCB:
00044f 93ea      	ST   -Y,R30
000450 dcda      	RCALL _LightDiode
                 ; 0000 0363        }
000451 cfef      	RJMP _0xB3
                 _0xB5:
                 ; 0000 0364        delay_ms(100);
000452 d201      	RCALL SUBOPT_0x12
                 ; 0000 0365 
                 ; 0000 0366        if(PIND.2==0) goto my;
000453 9b82      	SBIS 0x10,2
000454 cfec      	RJMP _0xB2
                 ; 0000 0367        USART_ON() ;
000455 deb0      	RCALL _USART_ON
                 ; 0000 0368          TCNT1H=0x00;
000456 e0e0      	LDI  R30,LOW(0)
000457 bded      	OUT  0x2D,R30
                 ; 0000 0369          TCNT1L=0x01;
000458 e0e1      	LDI  R30,LOW(1)
000459 bdec      	OUT  0x2C,R30
                 ; 0000 036A        // TIMSK=0x00;
                 ; 0000 036B        // TCCR1B=0x00;
                 ; 0000 036C m4:    SEND_Str("AT+CMGF=0\r");     // Установка PDU режима
                 _0xBB:
                +
00045a e6e0     +LDI R30 , LOW ( 2 * _0x0 + ( 212 ) )
00045b e0f1     +LDI R31 , HIGH ( 2 * _0x0 + ( 212 ) )
                 	__POINTW1FN _0x0,212
00045c d240      	RCALL SUBOPT_0x23
                 ; 0000 036D         #asm("wdr")
00045d 95a8      	wdr
                 ; 0000 036E        if (TEST_OK()==0) goto m4 ;
00045e dd08      	RCALL _TEST_OK
00045f 30e0      	CPI  R30,0
000460 f3c9      	BREQ _0xBB
                 ; 0000 036F 
                 ; 0000 0370 
                 ; 0000 0371 
                 ; 0000 0372 
                 ; 0000 0373 m5:   SEND_Str("AT+CMGS=39\r");  //    Ввод команды отправки сообщения
                 _0xBD:
                +
000461 e6eb     +LDI R30 , LOW ( 2 * _0x0 + ( 223 ) )
000462 e0f1     +LDI R31 , HIGH ( 2 * _0x0 + ( 223 ) )
                 	__POINTW1FN _0x0,223
000463 d239      	RCALL SUBOPT_0x23
                 ; 0000 0374         #asm("wdr")
000464 95a8      	wdr
                 ; 0000 0375       if (strrchr(rx_buffer, '>')==NULL)
000465 d1ce      	RCALL SUBOPT_0xB
000466 e3ee      	LDI  R30,LOW(62)
000467 93ea      	ST   -Y,R30
000468 d037      	RCALL _strrchr
000469 9730      	SBIW R30,0
00046a f411      	BRNE _0xBE
                 ; 0000 0376       {CLEAR_BUF();
00046b dceb      	RCALL _CLEAR_BUF
                 ; 0000 0377       goto m5;}
00046c cff4      	RJMP _0xBD
                 ; 0000 0378       CLEAR_BUF();
                 _0xBE:
00046d dce9      	RCALL _CLEAR_BUF
                 ; 0000 0379 
                 ; 0000 037A       SEND_Str("0001000B91");     // Ввод настроек PDU
00046e d1e8      	RCALL SUBOPT_0x13
                 ; 0000 037B 
                 ; 0000 037C       for(i=0;i<12;i++)            // Ввод номера
                 _0xC0:
00046f d1c9      	RCALL SUBOPT_0xD
000470 f418      	BRSH _0xC1
                 ; 0000 037D       {UART_Transmit(NR[i]);}
000471 d1ea      	RCALL SUBOPT_0x14
000472 d1b0      	RCALL SUBOPT_0x8
000473 cffb      	RJMP _0xC0
                 _0xC1:
                 ; 0000 037E 
                 ; 0000 037F        SEND_Str("00081A0414043204350440044C0020043E0442043A0440044B04420430\x1A"); // Ввод текста сообщения
                +
000474 e7e7     +LDI R30 , LOW ( 2 * _0x0 + ( 235 ) )
000475 e0f1     +LDI R31 , HIGH ( 2 * _0x0 + ( 235 ) )
                 	__POINTW1FN _0x0,235
000476 d226      	RCALL SUBOPT_0x23
                 ; 0000 0380 
                 ; 0000 0381        /* if(COUNT==10)
                 ; 0000 0382            {BALLANSE();
                 ; 0000 0383             COUNT=0;}*/
                 ; 0000 0384          COUNT++;
000477 e0ad      	LDI  R26,LOW(_COUNT)
000478 e0b0      	LDI  R27,HIGH(_COUNT)
000479 d282      	RCALL __EEPROMRDB
00047a 5fef      	SUBI R30,-LOW(1)
00047b d28c      	RCALL __EEPROMWRB
00047c 50e1      	SUBI R30,LOW(1)
                 ; 0000 0385                #asm("wdr")
00047d 95a8      	wdr
                 ; 0000 0386               CLEAR_BUF();
00047e dcd8      	RCALL _CLEAR_BUF
                 ; 0000 0387              USART_OFF() ;  //  Дективация USART
00047f de8b      	RCALL _USART_OFF
                 ; 0000 0388              #asm("wdr")
000480 95a8      	wdr
                 ; 0000 0389               TCNT1H=0x01;
000481 e0e1      	LDI  R30,LOW(1)
000482 bded      	OUT  0x2D,R30
                 ; 0000 038A               TCNT1L=0x4F;
000483 e4ef      	LDI  R30,LOW(79)
000484 bdec      	OUT  0x2C,R30
                 ; 0000 038B               TCCR1B=0x05;
000485 e0e5      	LDI  R30,LOW(5)
000486 bdee      	OUT  0x2E,R30
                 ; 0000 038C               TIMSK=0x04;
000487 e0e4      	LDI  R30,LOW(4)
000488 bfe9      	OUT  0x39,R30
                 ; 0000 038D       }
000489 cfa6      	RJMP _0xA6
                 ; 0000 038E 
                 ; 0000 038F }
                 _0xC2:
00048a cfff      	RJMP _0xC2
                 
                 	.DSEG
                 _0xA3:
000198           	.BYTE 0xF
                 
                 	.CSEG
                 _strlen:
00048b 91a9          ld   r26,y+
00048c 91b9          ld   r27,y+
00048d 27ee          clr  r30
00048e 27ff          clr  r31
                 strlen0:
00048f 916d          ld   r22,x+
000490 2366          tst  r22
000491 f011          breq strlen1
000492 9631          adiw r30,1
000493 cffb          rjmp strlen0
                 strlen1:
000494 9508          ret
                 _strlenf:
000495 27aa          clr  r26
000496 27bb          clr  r27
000497 91e9          ld   r30,y+
000498 91f9          ld   r31,y+
                 strlenf0:
000499 9005      	lpm  r0,z+
00049a 2000          tst  r0
00049b f011          breq strlenf1
00049c 9611          adiw r26,1
00049d cffb          rjmp strlenf0
                 strlenf1:
00049e 01fd          movw r30,r26
00049f 9508          ret
                 _strrchr:
0004a0 9169          ld   r22,y+
0004a1 91a9          ld   r26,y+
0004a2 91b9          ld   r27,y+
0004a3 27ee          clr  r30
0004a4 27ff          clr  r31
                 strrchr0:
0004a5 917c          ld   r23,x
0004a6 1767          cp   r22,r23
0004a7 f409          brne strrchr1
0004a8 01fd          movw r30,r26
                 strrchr1:
0004a9 9611          adiw r26,1
0004aa 2377          tst  r23
0004ab f7c9          brne strrchr0
0004ac 9508          ret
                 _strstr:
0004ad 81aa          ldd  r26,y+2
0004ae 81bb          ldd  r27,y+3
0004af 01cd          movw r24,r26
                 strstr0:
0004b0 81e8          ld   r30,y
0004b1 81f9          ldd  r31,y+1
                 strstr1:
0004b2 9171          ld   r23,z+
0004b3 2377          tst  r23
0004b4 f411          brne strstr2
0004b5 01fc          movw r30,r24
0004b6 c009          rjmp strstr3
                 strstr2:
0004b7 916d          ld   r22,x+
0004b8 1767          cp   r22,r23
0004b9 f3c1          breq strstr1
0004ba 9601          adiw r24,1
0004bb 01dc          movw r26,r24
0004bc 2366          tst  r22
0004bd f791          brne strstr0
0004be 27ee          clr  r30
0004bf 27ff          clr  r31
                 strstr3:
                 _0x20C0003:
0004c0 9624      	ADIW R28,4
0004c1 9508      	RET
                 
                 	.CSEG
                 
                 	.DSEG
                 
                 	.CSEG
                 	#ifndef __SLEEP_DEFINED__
                 	#endif
                 
                 	.CSEG
                 _putchar:
                 putchar0:
0004c2 9b5d           sbis usr,udre
0004c3 cffe           rjmp putchar0
0004c4 81e8           ld   r30,y
0004c5 b9ec           out  udr,r30
                 _0x20C0002:
0004c6 9621      	ADIW R28,1
0004c7 9508      	RET
                 _put_usart_G102:
0004c8 81ea      	LDD  R30,Y+2
0004c9 93ea      	ST   -Y,R30
0004ca dff7      	RCALL _putchar
0004cb 81a8      	LD   R26,Y
0004cc 81b9      	LDD  R27,Y+1
0004cd 91ed      	LD   R30,X+
0004ce 91fd      	LD   R31,X+
0004cf 9631      	ADIW R30,1
0004d0 93fe      	ST   -X,R31
0004d1 93ee      	ST   -X,R30
                 _0x20C0001:
0004d2 9623      	ADIW R28,3
0004d3 9508      	RET
                 __print_G102:
0004d4 9726      	SBIW R28,6
0004d5 d243      	RCALL __SAVELOCR6
0004d6 e010      	LDI  R17,0
0004d7 85ac      	LDD  R26,Y+12
0004d8 85bd      	LDD  R27,Y+12+1
0004d9 e0e0      	LDI  R30,LOW(0)
0004da e0f0      	LDI  R31,HIGH(0)
0004db 93ed      	ST   X+,R30
0004dc 93fc      	ST   X,R31
                 _0x2040016:
0004dd 89ea      	LDD  R30,Y+18
0004de 89fb      	LDD  R31,Y+18+1
0004df 9631      	ADIW R30,1
0004e0 8bea      	STD  Y+18,R30
0004e1 8bfb      	STD  Y+18+1,R31
0004e2 9731      	SBIW R30,1
0004e3 91e4      	LPM  R30,Z
0004e4 2f2e      	MOV  R18,R30
0004e5 30e0      	CPI  R30,0
0004e6 f409      	BRNE PC+2
0004e7 c0fc      	RJMP _0x2040018
0004e8 2fe1      	MOV  R30,R17
0004e9 30e0      	CPI  R30,0
0004ea f431      	BRNE _0x204001C
0004eb 3225      	CPI  R18,37
0004ec f411      	BRNE _0x204001D
0004ed e011      	LDI  R17,LOW(1)
0004ee c001      	RJMP _0x204001E
                 _0x204001D:
0004ef d1c2      	RCALL SUBOPT_0x26
                 _0x204001E:
0004f0 c0f2      	RJMP _0x204001B
                 _0x204001C:
0004f1 30e1      	CPI  R30,LOW(0x1)
0004f2 f4a1      	BRNE _0x204001F
0004f3 3225      	CPI  R18,37
0004f4 f411      	BRNE _0x2040020
0004f5 d1bc      	RCALL SUBOPT_0x26
0004f6 c0eb      	RJMP _0x20400C9
                 _0x2040020:
0004f7 e012      	LDI  R17,LOW(2)
0004f8 e040      	LDI  R20,LOW(0)
0004f9 e000      	LDI  R16,LOW(0)
0004fa 322d      	CPI  R18,45
0004fb f411      	BRNE _0x2040021
0004fc e001      	LDI  R16,LOW(1)
0004fd c0e5      	RJMP _0x204001B
                 _0x2040021:
0004fe 322b      	CPI  R18,43
0004ff f411      	BRNE _0x2040022
000500 e24b      	LDI  R20,LOW(43)
000501 c0e1      	RJMP _0x204001B
                 _0x2040022:
000502 3220      	CPI  R18,32
000503 f411      	BRNE _0x2040023
000504 e240      	LDI  R20,LOW(32)
000505 c0dd      	RJMP _0x204001B
                 _0x2040023:
000506 c002      	RJMP _0x2040024
                 _0x204001F:
000507 30e2      	CPI  R30,LOW(0x2)
000508 f439      	BRNE _0x2040025
                 _0x2040024:
000509 e050      	LDI  R21,LOW(0)
00050a e013      	LDI  R17,LOW(3)
00050b 3320      	CPI  R18,48
00050c f411      	BRNE _0x2040026
00050d 6800      	ORI  R16,LOW(128)
00050e c0d4      	RJMP _0x204001B
                 _0x2040026:
00050f c003      	RJMP _0x2040027
                 _0x2040025:
000510 30e3      	CPI  R30,LOW(0x3)
000511 f009      	BREQ PC+2
000512 c0d0      	RJMP _0x204001B
                 _0x2040027:
000513 3320      	CPI  R18,48
000514 f010      	BRLO _0x204002A
000515 332a      	CPI  R18,58
000516 f008      	BRLO _0x204002B
                 _0x204002A:
000517 c007      	RJMP _0x2040029
                 _0x204002B:
000518 e0aa      	LDI  R26,LOW(10)
000519 9f5a      	MUL  R21,R26
00051a 2d50      	MOV  R21,R0
00051b 2fe2      	MOV  R30,R18
00051c 53e0      	SUBI R30,LOW(48)
00051d 0f5e      	ADD  R21,R30
00051e c0c4      	RJMP _0x204001B
                 _0x2040029:
00051f 2fe2      	MOV  R30,R18
000520 36e3      	CPI  R30,LOW(0x63)
000521 f439      	BRNE _0x204002F
000522 d197      	RCALL SUBOPT_0x27
000523 d199      	RCALL SUBOPT_0x28
000524 d195      	RCALL SUBOPT_0x27
000525 81a4      	LDD  R26,Z+4
000526 93aa      	ST   -Y,R26
000527 d199      	RCALL SUBOPT_0x29
000528 c0b9      	RJMP _0x2040030
                 _0x204002F:
000529 37e3      	CPI  R30,LOW(0x73)
00052a f429      	BRNE _0x2040032
00052b d19c      	RCALL SUBOPT_0x2A
00052c d19d      	RCALL SUBOPT_0x2B
00052d df5d      	RCALL _strlen
00052e 2f1e      	MOV  R17,R30
00052f c007      	RJMP _0x2040033
                 _0x2040032:
000530 37e0      	CPI  R30,LOW(0x70)
000531 f449      	BRNE _0x2040035
000532 d195      	RCALL SUBOPT_0x2A
000533 d196      	RCALL SUBOPT_0x2B
000534 df60      	RCALL _strlenf
000535 2f1e      	MOV  R17,R30
000536 6008      	ORI  R16,LOW(8)
                 _0x2040033:
000537 6002      	ORI  R16,LOW(2)
000538 770f      	ANDI R16,LOW(127)
000539 e030      	LDI  R19,LOW(0)
00053a c02d      	RJMP _0x2040036
                 _0x2040035:
00053b 36e4      	CPI  R30,LOW(0x64)
00053c f011      	BREQ _0x2040039
00053d 36e9      	CPI  R30,LOW(0x69)
00053e f411      	BRNE _0x204003A
                 _0x2040039:
00053f 6004      	ORI  R16,LOW(4)
000540 c002      	RJMP _0x204003B
                 _0x204003A:
000541 37e5      	CPI  R30,LOW(0x75)
000542 f429      	BRNE _0x204003C
                 _0x204003B:
000543 e7ea      	LDI  R30,LOW(_tbl10_G102*2)
000544 e0f0      	LDI  R31,HIGH(_tbl10_G102*2)
000545 d18b      	RCALL SUBOPT_0x2C
000546 e015      	LDI  R17,LOW(5)
000547 c00b      	RJMP _0x204003D
                 _0x204003C:
000548 35e8      	CPI  R30,LOW(0x58)
000549 f411      	BRNE _0x204003F
00054a 6008      	ORI  R16,LOW(8)
00054b c003      	RJMP _0x2040040
                 _0x204003F:
00054c 37e8      	CPI  R30,LOW(0x78)
00054d f009      	BREQ PC+2
00054e c093      	RJMP _0x2040071
                 _0x2040040:
00054f e8e4      	LDI  R30,LOW(_tbl16_G102*2)
000550 e0f0      	LDI  R31,HIGH(_tbl16_G102*2)
000551 d17f      	RCALL SUBOPT_0x2C
000552 e014      	LDI  R17,LOW(4)
                 _0x204003D:
000553 ff02      	SBRS R16,2
000554 c011      	RJMP _0x2040042
000555 d172      	RCALL SUBOPT_0x2A
000556 d17d      	RCALL SUBOPT_0x2D
000557 85ab      	LDD  R26,Y+11
000558 23aa      	TST  R26
000559 f432      	BRPL _0x2040043
00055a 85ea      	LDD  R30,Y+10
00055b 85fb      	LDD  R31,Y+10+1
00055c d18e      	RCALL __ANEGW1
00055d 87ea      	STD  Y+10,R30
00055e 87fb      	STD  Y+10+1,R31
00055f e24d      	LDI  R20,LOW(45)
                 _0x2040043:
000560 3040      	CPI  R20,0
000561 f011      	BREQ _0x2040044
000562 5f1f      	SUBI R17,-LOW(1)
000563 c001      	RJMP _0x2040045
                 _0x2040044:
000564 7f0b      	ANDI R16,LOW(251)
                 _0x2040045:
000565 c002      	RJMP _0x2040046
                 _0x2040042:
000566 d161      	RCALL SUBOPT_0x2A
000567 d16c      	RCALL SUBOPT_0x2D
                 _0x2040046:
                 _0x2040036:
000568 fd00      	SBRC R16,0
000569 c010      	RJMP _0x2040047
                 _0x2040048:
00056a 1715      	CP   R17,R21
00056b f470      	BRSH _0x204004A
00056c ff07      	SBRS R16,7
00056d c008      	RJMP _0x204004B
00056e ff02      	SBRS R16,2
00056f c004      	RJMP _0x204004C
000570 7f0b      	ANDI R16,LOW(251)
000571 2f24      	MOV  R18,R20
000572 5011      	SUBI R17,LOW(1)
000573 c001      	RJMP _0x204004D
                 _0x204004C:
000574 e320      	LDI  R18,LOW(48)
                 _0x204004D:
000575 c001      	RJMP _0x204004E
                 _0x204004B:
000576 e220      	LDI  R18,LOW(32)
                 _0x204004E:
000577 d13a      	RCALL SUBOPT_0x26
000578 5051      	SUBI R21,LOW(1)
000579 cff0      	RJMP _0x2040048
                 _0x204004A:
                 _0x2040047:
00057a 2f31      	MOV  R19,R17
00057b ff01      	SBRS R16,1
00057c c015      	RJMP _0x204004F
                 _0x2040050:
00057d 3030      	CPI  R19,0
00057e f091      	BREQ _0x2040052
00057f ff03      	SBRS R16,3
000580 c005      	RJMP _0x2040053
000581 81ee      	LDD  R30,Y+6
000582 81ff      	LDD  R31,Y+6+1
000583 9125      	LPM  R18,Z+
000584 d14c      	RCALL SUBOPT_0x2C
000585 c005      	RJMP _0x2040054
                 _0x2040053:
000586 81ae      	LDD  R26,Y+6
000587 81bf      	LDD  R27,Y+6+1
000588 912d      	LD   R18,X+
000589 83ae      	STD  Y+6,R26
00058a 83bf      	STD  Y+6+1,R27
                 _0x2040054:
00058b d126      	RCALL SUBOPT_0x26
00058c 3050      	CPI  R21,0
00058d f009      	BREQ _0x2040055
00058e 5051      	SUBI R21,LOW(1)
                 _0x2040055:
00058f 5031      	SUBI R19,LOW(1)
000590 cfec      	RJMP _0x2040050
                 _0x2040052:
000591 c047      	RJMP _0x2040056
                 _0x204004F:
                 _0x2040058:
000592 e320      	LDI  R18,LOW(48)
000593 81ee      	LDD  R30,Y+6
000594 81ff      	LDD  R31,Y+6+1
000595 d15d      	RCALL __GETW1PF
000596 87e8      	STD  Y+8,R30
000597 87f9      	STD  Y+8+1,R31
000598 81ee      	LDD  R30,Y+6
000599 81ff      	LDD  R31,Y+6+1
00059a 9632      	ADIW R30,2
00059b d135      	RCALL SUBOPT_0x2C
                 _0x204005A:
00059c 85e8      	LDD  R30,Y+8
00059d 85f9      	LDD  R31,Y+8+1
00059e 85aa      	LDD  R26,Y+10
00059f 85bb      	LDD  R27,Y+10+1
0005a0 17ae      	CP   R26,R30
0005a1 07bf      	CPC  R27,R31
0005a2 f050      	BRLO _0x204005C
0005a3 5f2f      	SUBI R18,-LOW(1)
0005a4 85a8      	LDD  R26,Y+8
0005a5 85b9      	LDD  R27,Y+8+1
0005a6 85ea      	LDD  R30,Y+10
0005a7 85fb      	LDD  R31,Y+10+1
0005a8 1bea      	SUB  R30,R26
0005a9 0bfb      	SBC  R31,R27
0005aa 87ea      	STD  Y+10,R30
0005ab 87fb      	STD  Y+10+1,R31
0005ac cfef      	RJMP _0x204005A
                 _0x204005C:
0005ad 332a      	CPI  R18,58
0005ae f028      	BRLO _0x204005D
0005af ff03      	SBRS R16,3
0005b0 c002      	RJMP _0x204005E
0005b1 5f29      	SUBI R18,-LOW(7)
0005b2 c001      	RJMP _0x204005F
                 _0x204005E:
0005b3 5d29      	SUBI R18,-LOW(39)
                 _0x204005F:
                 _0x204005D:
0005b4 fd04      	SBRC R16,4
0005b5 c019      	RJMP _0x2040061
0005b6 3321      	CPI  R18,49
0005b7 f420      	BRSH _0x2040063
0005b8 85a8      	LDD  R26,Y+8
0005b9 85b9      	LDD  R27,Y+8+1
0005ba 9711      	SBIW R26,1
0005bb f409      	BRNE _0x2040062
                 _0x2040063:
0005bc c009      	RJMP _0x20400CA
                 _0x2040062:
0005bd 1753      	CP   R21,R19
0005be f010      	BRLO _0x2040067
0005bf ff00      	SBRS R16,0
0005c0 c001      	RJMP _0x2040068
                 _0x2040067:
0005c1 c011      	RJMP _0x2040066
                 _0x2040068:
0005c2 e220      	LDI  R18,LOW(32)
0005c3 ff07      	SBRS R16,7
0005c4 c00a      	RJMP _0x2040069
0005c5 e320      	LDI  R18,LOW(48)
                 _0x20400CA:
0005c6 6100      	ORI  R16,LOW(16)
0005c7 ff02      	SBRS R16,2
0005c8 c006      	RJMP _0x204006A
0005c9 7f0b      	ANDI R16,LOW(251)
0005ca 934a      	ST   -Y,R20
0005cb d0f5      	RCALL SUBOPT_0x29
0005cc 3050      	CPI  R21,0
0005cd f009      	BREQ _0x204006B
0005ce 5051      	SUBI R21,LOW(1)
                 _0x204006B:
                 _0x204006A:
                 _0x2040069:
                 _0x2040061:
0005cf d0e2      	RCALL SUBOPT_0x26
0005d0 3050      	CPI  R21,0
0005d1 f009      	BREQ _0x204006C
0005d2 5051      	SUBI R21,LOW(1)
                 _0x204006C:
                 _0x2040066:
0005d3 5031      	SUBI R19,LOW(1)
0005d4 85a8      	LDD  R26,Y+8
0005d5 85b9      	LDD  R27,Y+8+1
0005d6 9712      	SBIW R26,2
0005d7 f008      	BRLO _0x2040059
0005d8 cfb9      	RJMP _0x2040058
                 _0x2040059:
                 _0x2040056:
0005d9 ff00      	SBRS R16,0
0005da c007      	RJMP _0x204006D
                 _0x204006E:
0005db 3050      	CPI  R21,0
0005dc f029      	BREQ _0x2040070
0005dd 5051      	SUBI R21,LOW(1)
0005de e2e0      	LDI  R30,LOW(32)
0005df 93ea      	ST   -Y,R30
0005e0 d0e0      	RCALL SUBOPT_0x29
0005e1 cff9      	RJMP _0x204006E
                 _0x2040070:
                 _0x204006D:
                 _0x2040071:
                 _0x2040030:
                 _0x20400C9:
0005e2 e010      	LDI  R17,LOW(0)
                 _0x204001B:
0005e3 cef9      	RJMP _0x2040016
                 _0x2040018:
0005e4 85ac      	LDD  R26,Y+12
0005e5 85bd      	LDD  R27,Y+12+1
0005e6 d108      	RCALL __GETW1P
0005e7 d138      	RCALL __LOADLOCR6
0005e8 9664      	ADIW R28,20
0005e9 9508      	RET
                 _printf:
0005ea 92ff      	PUSH R15
0005eb 2ef8      	MOV  R15,R24
0005ec 9726      	SBIW R28,6
0005ed d12f      	RCALL __SAVELOCR2
0005ee 01de      	MOVW R26,R28
0005ef 9614      	ADIW R26,4
0005f0 d0f6      	RCALL __ADDW2R15
0005f1 018d      	MOVW R16,R26
0005f2 e0e0      	LDI  R30,LOW(0)
0005f3 83ec      	STD  Y+4,R30
0005f4 83ed      	STD  Y+4+1,R30
0005f5 83ee      	STD  Y+6,R30
0005f6 83ef      	STD  Y+6+1,R30
0005f7 01de      	MOVW R26,R28
0005f8 9618      	ADIW R26,8
0005f9 d0ed      	RCALL __ADDW2R15
0005fa d0f4      	RCALL __GETW1P
0005fb d01b      	RCALL SUBOPT_0x4
0005fc 931a      	ST   -Y,R17
0005fd 930a      	ST   -Y,R16
0005fe ece8      	LDI  R30,LOW(_put_usart_G102)
0005ff e0f4      	LDI  R31,HIGH(_put_usart_G102)
000600 d016      	RCALL SUBOPT_0x4
000601 01fe      	MOVW R30,R28
000602 9638      	ADIW R30,8
000603 d013      	RCALL SUBOPT_0x4
000604 decf      	RCALL __print_G102
000605 d11e      	RCALL __LOADLOCR2
000606 9628      	ADIW R28,8
000607 90ff      	POP  R15
000608 9508      	RET
                 	#ifndef __SLEEP_DEFINED__
                 	#endif
                 
                 	.CSEG
                 
                 	.CSEG
                 
                 	.CSEG
                 
                 	.DSEG
                 _SPI_buffer:
0001a7           	.BYTE 0x40
                 
                 	.ESEG
                 _OP:
000000           	.BYTE 0x1
                 _NR:
000001           	.BYTE 0xC
                 _COUNT:
00000d           	.BYTE 0x1
                 
                 	.DSEG
                 _rx_buffer:
0001e7           	.BYTE 0x200
                 __seed_G101:
0003e7           	.BYTE 0x4
                 
                 	.CSEG
                 ;OPTIMIZER ADDED SUBROUTINE, CALLED 16 TIMES, CODE SIZE REDUCTION:28 WORDS
                 SUBOPT_0x0:
000609 e0f0      	LDI  R31,0
00060a 9508      	RET
                 
                 ;OPTIMIZER ADDED SUBROUTINE, CALLED 5 TIMES, CODE SIZE REDUCTION:2 WORDS
                 SUBOPT_0x1:
00060b 81e8      	LD   R30,Y
00060c 81f9      	LDD  R31,Y+1
00060d 9508      	RET
                 
                 ;OPTIMIZER ADDED SUBROUTINE, CALLED 2 TIMES, CODE SIZE REDUCTION:3 WORDS
                 SUBOPT_0x2:
00060e dffc      	RCALL SUBOPT_0x1
00060f 9631      	ADIW R30,1
000610 83e8      	ST   Y,R30
000611 83f9      	STD  Y+1,R31
000612 9731      	SBIW R30,1
000613 91e4      	LPM  R30,Z
000614 9508      	RET
                 
                 ;OPTIMIZER ADDED SUBROUTINE, CALLED 5 TIMES, CODE SIZE REDUCTION:2 WORDS
                 SUBOPT_0x3:
000615 93ea      	ST   -Y,R30
000616 cb2f      	RJMP _UART_Transmit
                 
                 ;OPTIMIZER ADDED SUBROUTINE, CALLED 66 TIMES, CODE SIZE REDUCTION:63 WORDS
                 SUBOPT_0x4:
000617 93fa      	ST   -Y,R31
000618 93ea      	ST   -Y,R30
000619 9508      	RET
                 
                 ;OPTIMIZER ADDED SUBROUTINE, CALLED 7 TIMES, CODE SIZE REDUCTION:4 WORDS
                 SUBOPT_0x5:
00061a 2466      	CLR  R6
00061b 2477      	CLR  R7
00061c 9508      	RET
                 
                 ;OPTIMIZER ADDED SUBROUTINE, CALLED 5 TIMES, CODE SIZE REDUCTION:2 WORDS
                 SUBOPT_0x6:
00061d 166e      	CP   R6,R30
00061e 067f      	CPC  R7,R31
00061f 9508      	RET
                 
                 ;OPTIMIZER ADDED SUBROUTINE, CALLED 4 TIMES, CODE SIZE REDUCTION:1 WORDS
                 SUBOPT_0x7:
000620 0da6      	ADD  R26,R6
000621 1db7      	ADC  R27,R7
000622 9508      	RET
                 
                 ;OPTIMIZER ADDED SUBROUTINE, CALLED 8 TIMES, CODE SIZE REDUCTION:12 WORDS
                 SUBOPT_0x8:
000623 01f3      	MOVW R30,R6
000624 9631      	ADIW R30,1
000625 013f      	MOVW R6,R30
000626 9508      	RET
                 
                 ;OPTIMIZER ADDED SUBROUTINE, CALLED 2 TIMES, CODE SIZE REDUCTION:6 WORDS
                 SUBOPT_0x9:
000627 d0f3      	RCALL __SAVELOCR4
000628 eee7      	LDI  R30,LOW(_rx_buffer)
000629 e0f1      	LDI  R31,HIGH(_rx_buffer)
00062a dfec      	RCALL SUBOPT_0x4
00062b 01fe      	MOVW R30,R28
00062c 9636      	ADIW R30,6
00062d dfe9      	RCALL SUBOPT_0x4
00062e de7e      	RCALL _strstr
00062f 019f      	MOVW R18,R30
000630 9508      	RET
                 
                 ;OPTIMIZER ADDED SUBROUTINE, CALLED 4 TIMES, CODE SIZE REDUCTION:1 WORDS
                 SUBOPT_0xA:
000631 2fe1      	MOV  R30,R17
000632 d0ef      	RCALL __LOADLOCR4
000633 9508      	RET
                 
                 ;OPTIMIZER ADDED SUBROUTINE, CALLED 7 TIMES, CODE SIZE REDUCTION:10 WORDS
                 SUBOPT_0xB:
000634 eee7      	LDI  R30,LOW(_rx_buffer)
000635 e0f1      	LDI  R31,HIGH(_rx_buffer)
000636 cfe0      	RJMP SUBOPT_0x4
                 
                 ;OPTIMIZER ADDED SUBROUTINE, CALLED 8 TIMES, CODE SIZE REDUCTION:5 WORDS
                 SUBOPT_0xC:
000637 dfdf      	RCALL SUBOPT_0x4
000638 ce74      	RJMP _strstr
                 
                 ;OPTIMIZER ADDED SUBROUTINE, CALLED 3 TIMES, CODE SIZE REDUCTION:2 WORDS
                 SUBOPT_0xD:
000639 e0ec      	LDI  R30,LOW(12)
00063a e0f0      	LDI  R31,HIGH(12)
00063b cfe1      	RJMP SUBOPT_0x6
                 
                 ;OPTIMIZER ADDED SUBROUTINE, CALLED 2 TIMES, CODE SIZE REDUCTION:5 WORDS
                 SUBOPT_0xE:
00063c 9731      	SBIW R30,1
00063d 5fef      	SUBI R30,LOW(-_NR)
00063e 4fff      	SBCI R31,HIGH(-_NR)
00063f 010f      	MOVW R0,R30
000640 01d9      	MOVW R26,R18
000641 91ec      	LD   R30,X
000642 01d0      	MOVW R26,R0
000643 d0c4      	RCALL __EEPROMWRB
000644 9508      	RET
                 
                 ;OPTIMIZER ADDED SUBROUTINE, CALLED 14 TIMES, CODE SIZE REDUCTION:11 WORDS
                 SUBOPT_0xF:
000645 dfd1      	RCALL SUBOPT_0x4
000646 c094      	RJMP _delay_ms
                 
                 ;OPTIMIZER ADDED SUBROUTINE, CALLED 3 TIMES, CODE SIZE REDUCTION:2 WORDS
                 SUBOPT_0x10:
000647 eee8      	LDI  R30,LOW(1000)
000648 e0f3      	LDI  R31,HIGH(1000)
000649 cffb      	RJMP SUBOPT_0xF
                 
                 ;OPTIMIZER ADDED SUBROUTINE, CALLED 2 TIMES, CODE SIZE REDUCTION:6 WORDS
                 SUBOPT_0x11:
00064a dfcc      	RCALL SUBOPT_0x4
00064b 2fe1      	MOV  R30,R17
00064c 27ff      	CLR  R31
00064d 2766      	CLR  R22
00064e 2777      	CLR  R23
00064f d0a7      	RCALL __PUTPARD1
000650 e084      	LDI  R24,4
000651 df98      	RCALL _printf
000652 9626      	ADIW R28,6
000653 9508      	RET
                 
                 ;OPTIMIZER ADDED SUBROUTINE, CALLED 4 TIMES, CODE SIZE REDUCTION:4 WORDS
                 SUBOPT_0x12:
000654 e6e4      	LDI  R30,LOW(100)
000655 e0f0      	LDI  R31,HIGH(100)
000656 cfee      	RJMP SUBOPT_0xF
                 
                 ;OPTIMIZER ADDED SUBROUTINE, CALLED 2 TIMES, CODE SIZE REDUCTION:2 WORDS
                 SUBOPT_0x13:
                +
000657 eeea     +LDI R30 , LOW ( 2 * _0x0 + ( 94 ) )
000658 e0f0     +LDI R31 , HIGH ( 2 * _0x0 + ( 94 ) )
                 	__POINTW1FN _0x0,94
000659 dfbd      	RCALL SUBOPT_0x4
00065a daf0      	RCALL _SEND_Str
00065b cfbe      	RJMP SUBOPT_0x5
                 
                 ;OPTIMIZER ADDED SUBROUTINE, CALLED 2 TIMES, CODE SIZE REDUCTION:2 WORDS
                 SUBOPT_0x14:
00065c e0a1      	LDI  R26,LOW(_NR)
00065d e0b0      	LDI  R27,HIGH(_NR)
00065e dfc1      	RCALL SUBOPT_0x7
00065f d09c      	RCALL __EEPROMRDB
000660 cfb4      	RJMP SUBOPT_0x3
                 
                 ;OPTIMIZER ADDED SUBROUTINE, CALLED 13 TIMES, CODE SIZE REDUCTION:10 WORDS
                 SUBOPT_0x15:
000661 2fe1      	MOV  R30,R17
000662 cfa6      	RJMP SUBOPT_0x0
                 
                 ;OPTIMIZER ADDED SUBROUTINE, CALLED 4 TIMES, CODE SIZE REDUCTION:1 WORDS
                 SUBOPT_0x16:
000663 83e8      	ST   Y,R30
000664 83f9      	STD  Y+1,R31
000665 9508      	RET
                 
                 ;OPTIMIZER ADDED SUBROUTINE, CALLED 4 TIMES, CODE SIZE REDUCTION:10 WORDS
                 SUBOPT_0x17:
000666 93ea      	ST   -Y,R30
000667 dba9      	RCALL _SPI_SEND
                +
000668 e082     +LDI R24 , LOW ( 2 )
                +__DELAY_USB_LOOP :
000669 958a     +DEC R24
00066a f7f1     +BRNE __DELAY_USB_LOOP
                 	__DELAY_USB 2
00066b 9508      	RET
                 
                 ;OPTIMIZER ADDED SUBROUTINE, CALLED 4 TIMES, CODE SIZE REDUCTION:4 WORDS
                 SUBOPT_0x18:
00066c efef      	LDI  R30,LOW(255)
00066d 93ea      	ST   -Y,R30
00066e cba2      	RJMP _SPI_SEND
                 
                 ;OPTIMIZER ADDED SUBROUTINE, CALLED 2 TIMES, CODE SIZE REDUCTION:1 WORDS
                 SUBOPT_0x19:
00066f 5dea      	SUBI R30,LOW(-_tbl_frame*2)
000670 4fff      	SBCI R31,HIGH(-_tbl_frame*2)
000671 91e4      	LPM  R30,Z
000672 93ea      	ST   -Y,R30
000673 9508      	RET
                 
                 ;OPTIMIZER ADDED SUBROUTINE, CALLED 2 TIMES, CODE SIZE REDUCTION:1 WORDS
                 SUBOPT_0x1A:
000674 81ea      	LDD  R30,Y+2
000675 81fb      	LDD  R31,Y+2+1
000676 dfa0      	RCALL SUBOPT_0x4
000677 cb9f      	RJMP _TR24_Wrtie
                 
                 ;OPTIMIZER ADDED SUBROUTINE, CALLED 2 TIMES, CODE SIZE REDUCTION:1 WORDS
                 SUBOPT_0x1B:
000678 5bec      	SUBI R30,LOW(-_tbl_rfinit*2)
000679 4fff      	SBCI R31,HIGH(-_tbl_rfinit*2)
00067a 91e4      	LPM  R30,Z
00067b 93ea      	ST   -Y,R30
00067c 9508      	RET
                 
                 ;OPTIMIZER ADDED SUBROUTINE, CALLED 2 TIMES, CODE SIZE REDUCTION:1 WORDS
                 SUBOPT_0x1C:
00067d dba8      	RCALL _TR24A_Read
00067e 83e9      	STD  Y+1,R30
00067f 83fa      	STD  Y+1+1,R31
000680 cfe0      	RJMP SUBOPT_0x15
                 
                 ;OPTIMIZER ADDED SUBROUTINE, CALLED 4 TIMES, CODE SIZE REDUCTION:1 WORDS
                 SUBOPT_0x1D:
000681 e0e7      	LDI  R30,LOW(7)
000682 93ea      	ST   -Y,R30
000683 9508      	RET
                 
                 ;OPTIMIZER ADDED SUBROUTINE, CALLED 2 TIMES, CODE SIZE REDUCTION:4 WORDS
                 SUBOPT_0x1E:
000684 dba1      	RCALL _TR24A_Read
000685 dfdd      	RCALL SUBOPT_0x16
000686 e1e2      	LDI  R30,LOW(18)
000687 83e9      	STD  Y+1,R30
000688 e4ee      	LDI  R30,LOW(78)
000689 83e8      	ST   Y,R30
00068a 81e9      	LDD  R30,Y+1
00068b 9508      	RET
                 
                 ;OPTIMIZER ADDED SUBROUTINE, CALLED 2 TIMES, CODE SIZE REDUCTION:1 WORDS
                 SUBOPT_0x1F:
00068c 81e9      	LDD  R30,Y+1
00068d 81fa      	LDD  R31,Y+1+1
00068e df88      	RCALL SUBOPT_0x4
00068f cb87      	RJMP _TR24_Wrtie
                 
                 ;OPTIMIZER ADDED SUBROUTINE, CALLED 2 TIMES, CODE SIZE REDUCTION:2 WORDS
                 SUBOPT_0x20:
000690 93ea      	ST   -Y,R30
000691 db7f      	RCALL _SPI_SEND
                +
000692 e084     +LDI R24 , LOW ( 4 )
                +__DELAY_USB_LOOP :
000693 958a     +DEC R24
000694 f7f1     +BRNE __DELAY_USB_LOOP
                 	__DELAY_USB 4
000695 9508      	RET
                 
                 ;OPTIMIZER ADDED SUBROUTINE, CALLED 4 TIMES, CODE SIZE REDUCTION:4 WORDS
                 SUBOPT_0x21:
                +
000696 e084     +LDI R24 , LOW ( 4 )
                +__DELAY_USB_LOOP :
000697 958a     +DEC R24
000698 f7f1     +BRNE __DELAY_USB_LOOP
                 	__DELAY_USB 4
000699 9508      	RET
                 
                 ;OPTIMIZER ADDED SUBROUTINE, CALLED 3 TIMES, CODE SIZE REDUCTION:2 WORDS
                 SUBOPT_0x22:
00069a e0e3      	LDI  R30,LOW(3)
00069b 93ea      	ST   -Y,R30
00069c ca8e      	RJMP _LightDiode
                 
                 ;OPTIMIZER ADDED SUBROUTINE, CALLED 8 TIMES, CODE SIZE REDUCTION:5 WORDS
                 SUBOPT_0x23:
00069d df79      	RCALL SUBOPT_0x4
00069e caac      	RJMP _SEND_Str
                 
                 ;OPTIMIZER ADDED SUBROUTINE, CALLED 2 TIMES, CODE SIZE REDUCTION:10 WORDS
                 SUBOPT_0x24:
00069f 920a      	ST   -Y,R0
0006a0 921a      	ST   -Y,R1
0006a1 92fa      	ST   -Y,R15
0006a2 936a      	ST   -Y,R22
0006a3 937a      	ST   -Y,R23
0006a4 938a      	ST   -Y,R24
0006a5 939a      	ST   -Y,R25
0006a6 93aa      	ST   -Y,R26
0006a7 93ba      	ST   -Y,R27
0006a8 93ea      	ST   -Y,R30
0006a9 93fa      	ST   -Y,R31
0006aa b7ef      	IN   R30,SREG
0006ab 93ea      	ST   -Y,R30
0006ac 9508      	RET
                 
                 ;OPTIMIZER ADDED SUBROUTINE, CALLED 2 TIMES, CODE SIZE REDUCTION:1 WORDS
                 SUBOPT_0x25:
0006ad e0e4      	LDI  R30,LOW(4)
0006ae bfe9      	OUT  0x39,R30
0006af e0e5      	LDI  R30,LOW(5)
0006b0 bdee      	OUT  0x2E,R30
0006b1 9508      	RET
                 
                 ;OPTIMIZER ADDED SUBROUTINE, CALLED 5 TIMES, CODE SIZE REDUCTION:22 WORDS
                 SUBOPT_0x26:
0006b2 932a      	ST   -Y,R18
0006b3 85ed      	LDD  R30,Y+13
0006b4 85fe      	LDD  R31,Y+13+1
0006b5 df61      	RCALL SUBOPT_0x4
0006b6 89e9      	LDD  R30,Y+17
0006b7 89fa      	LDD  R31,Y+17+1
0006b8 9509      	ICALL
0006b9 9508      	RET
                 
                 ;OPTIMIZER ADDED SUBROUTINE, CALLED 6 TIMES, CODE SIZE REDUCTION:3 WORDS
                 SUBOPT_0x27:
0006ba 89e8      	LDD  R30,Y+16
0006bb 89f9      	LDD  R31,Y+16+1
0006bc 9508      	RET
                 
                 ;OPTIMIZER ADDED SUBROUTINE, CALLED 5 TIMES, CODE SIZE REDUCTION:6 WORDS
                 SUBOPT_0x28:
0006bd 9734      	SBIW R30,4
0006be 8be8      	STD  Y+16,R30
0006bf 8bf9      	STD  Y+16+1,R31
0006c0 9508      	RET
                 
                 ;OPTIMIZER ADDED SUBROUTINE, CALLED 3 TIMES, CODE SIZE REDUCTION:8 WORDS
                 SUBOPT_0x29:
0006c1 85ed      	LDD  R30,Y+13
0006c2 85fe      	LDD  R31,Y+13+1
0006c3 df53      	RCALL SUBOPT_0x4
0006c4 89e9      	LDD  R30,Y+17
0006c5 89fa      	LDD  R31,Y+17+1
0006c6 9509      	ICALL
0006c7 9508      	RET
                 
                 ;OPTIMIZER ADDED SUBROUTINE, CALLED 4 TIMES, CODE SIZE REDUCTION:1 WORDS
                 SUBOPT_0x2A:
0006c8 dff1      	RCALL SUBOPT_0x27
0006c9 cff3      	RJMP SUBOPT_0x28
                 
                 ;OPTIMIZER ADDED SUBROUTINE, CALLED 2 TIMES, CODE SIZE REDUCTION:6 WORDS
                 SUBOPT_0x2B:
0006ca 89a8      	LDD  R26,Y+16
0006cb 89b9      	LDD  R27,Y+16+1
0006cc 9614      	ADIW R26,4
0006cd d021      	RCALL __GETW1P
0006ce 83ee      	STD  Y+6,R30
0006cf 83ff      	STD  Y+6+1,R31
0006d0 cf46      	RJMP SUBOPT_0x4
                 
                 ;OPTIMIZER ADDED SUBROUTINE, CALLED 4 TIMES, CODE SIZE REDUCTION:1 WORDS
                 SUBOPT_0x2C:
0006d1 83ee      	STD  Y+6,R30
0006d2 83ff      	STD  Y+6+1,R31
0006d3 9508      	RET
                 
                 ;OPTIMIZER ADDED SUBROUTINE, CALLED 2 TIMES, CODE SIZE REDUCTION:3 WORDS
                 SUBOPT_0x2D:
0006d4 89a8      	LDD  R26,Y+16
0006d5 89b9      	LDD  R27,Y+16+1
0006d6 9614      	ADIW R26,4
0006d7 d017      	RCALL __GETW1P
0006d8 87ea      	STD  Y+10,R30
0006d9 87fb      	STD  Y+10+1,R31
0006da 9508      	RET
                 
                 
                 	.CSEG
                 _delay_ms:
0006db 91e9      	ld   r30,y+
0006dc 91f9      	ld   r31,y+
0006dd 9630      	adiw r30,0
0006de f039      	breq __delay_ms1
                 __delay_ms0:
                +
0006df e98a     +LDI R24 , LOW ( 0x39A )
0006e0 e093     +LDI R25 , HIGH ( 0x39A )
                +__DELAY_USW_LOOP :
0006e1 9701     +SBIW R24 , 1
0006e2 f7f1     +BRNE __DELAY_USW_LOOP
                 	__DELAY_USW 0x39A
0006e3 95a8      	wdr
0006e4 9731      	sbiw r30,1
0006e5 f7c9      	brne __delay_ms0
                 __delay_ms1:
0006e6 9508      	ret
                 
                 __ADDW2R15:
0006e7 2400      	CLR  R0
0006e8 0daf      	ADD  R26,R15
0006e9 1db0      	ADC  R27,R0
0006ea 9508      	RET
                 
                 __ANEGW1:
0006eb 95f1      	NEG  R31
0006ec 95e1      	NEG  R30
0006ed 40f0      	SBCI R31,0
0006ee 9508      	RET
                 
                 __GETW1P:
0006ef 91ed      	LD   R30,X+
0006f0 91fc      	LD   R31,X
0006f1 9711      	SBIW R26,1
0006f2 9508      	RET
                 
                 __GETW1PF:
0006f3 9005      	LPM  R0,Z+
0006f4 91f4      	LPM  R31,Z
0006f5 2de0      	MOV  R30,R0
0006f6 9508      	RET
                 
                 __PUTPARD1:
0006f7 937a      	ST   -Y,R23
0006f8 936a      	ST   -Y,R22
0006f9 93fa      	ST   -Y,R31
0006fa 93ea      	ST   -Y,R30
0006fb 9508      	RET
                 
                 __EEPROMRDB:
0006fc 99e1      	SBIC EECR,EEWE
0006fd cffe      	RJMP __EEPROMRDB
0006fe 93ff      	PUSH R31
0006ff b7ff      	IN   R31,SREG
000700 94f8      	CLI
000701 bbae      	OUT  EEARL,R26
000702 bbbf      	OUT  EEARH,R27
000703 9ae0      	SBI  EECR,EERE
000704 b3ed      	IN   R30,EEDR
000705 bfff      	OUT  SREG,R31
000706 91ff      	POP  R31
000707 9508      	RET
                 
                 __EEPROMWRB:
000708 9be1      	SBIS EECR,EEWE
000709 c002      	RJMP __EEPROMWRB1
00070a 95a8      	WDR
00070b cffc      	RJMP __EEPROMWRB
                 __EEPROMWRB1:
00070c b79f      	IN   R25,SREG
00070d 94f8      	CLI
00070e bbae      	OUT  EEARL,R26
00070f bbbf      	OUT  EEARH,R27
000710 9ae0      	SBI  EECR,EERE
000711 b38d      	IN   R24,EEDR
000712 17e8      	CP   R30,R24
000713 f019      	BREQ __EEPROMWRB0
000714 bbed      	OUT  EEDR,R30
000715 9ae2      	SBI  EECR,EEMWE
000716 9ae1      	SBI  EECR,EEWE
                 __EEPROMWRB0:
000717 bf9f      	OUT  SREG,R25
000718 9508      	RET
                 
                 __SAVELOCR6:
000719 935a      	ST   -Y,R21
                 __SAVELOCR5:
00071a 934a      	ST   -Y,R20
                 __SAVELOCR4:
00071b 933a      	ST   -Y,R19
                 __SAVELOCR3:
00071c 932a      	ST   -Y,R18
                 __SAVELOCR2:
00071d 931a      	ST   -Y,R17
00071e 930a      	ST   -Y,R16
00071f 9508      	RET
                 
                 __LOADLOCR6:
000720 815d      	LDD  R21,Y+5
                 __LOADLOCR5:
000721 814c      	LDD  R20,Y+4
                 __LOADLOCR4:
000722 813b      	LDD  R19,Y+3
                 __LOADLOCR3:
000723 812a      	LDD  R18,Y+2
                 __LOADLOCR2:
000724 8119      	LDD  R17,Y+1
000725 8108      	LD   R16,Y
000726 9508      	RET
                 
                 __LOADLOCR2P:
000727 9109      	LD   R16,Y+
000728 9119      	LD   R17,Y+
000729 9508      	RET
                 
                 ;END OF CODE MARKER
                 __END_OF_CODE:


RESOURCE USE INFORMATION
------------------------

Notice:
The register and instruction counts are symbol table hit counts,
and hence implicitly used resources are not counted, eg, the
'lpm' instruction without operands implicitly uses r0 and z,
none of which are counted.

x,y,z are separate entities in the symbol table and are
counted separately from r26..r31 here.

.dseg memory usage only counts static data declared with .byte

ATmega8L register use summary:
r0 :  27 r1 :   3 r2 :   0 r3 :   0 r4 :   5 r5 :   9 r6 :   7 r7 :   3 
r8 :   0 r9 :   4 r10:   4 r11:   2 r12:   0 r13:   0 r14:   0 r15:   6 
r16:  35 r17:  46 r18:  43 r19:  17 r20:  13 r21:  19 r22:  13 r23:  10 
r24:  31 r25:   7 r26:  86 r27:  37 r28:  27 r29:   1 r30: 452 r31: 134 
x  :  23 y  : 213 z  :  28 
Registers used: 29 out of 35 (82.9%)

ATmega8L instruction use summary:
.lds  :   0 .lds.l:   0 .sts  :   0 .sts.l:   0 adc   :   2 add   :   3 
adiw  :  30 and   :   0 andi  :   7 asr   :   0 bclr  :   0 bld   :   0 
brbc  :   0 brbs  :   0 brcc  :   0 brcs  :   0 break :   0 breq  :  34 
brge  :   0 brhc  :   0 brhs  :   0 brid  :   0 brie  :   0 brlo  :   7 
brlt  :   0 brmi  :   0 brne  :  51 brpl  :   1 brsh  :  13 brtc  :   0 
brts  :   0 brvc  :   0 brvs  :   0 bset  :   0 bst   :   0 cbi   :  13 
cbr   :   0 clc   :   0 clh   :   0 cli   :   3 cln   :   0 clr   :  19 
cls   :   0 clt   :   0 clv   :   0 clz   :   0 com   :   0 cp    :  18 
cpc   :   8 cpi   :  48 cpse  :   0 dec   :   7 des   :   0 eor   :   0 
fmul  :   0 fmuls :   0 fmulsu:   0 icall :   2 ijmp  :   0 in    :  10 
inc   :   0 ld    :  51 ldd   :  71 ldi   : 247 lds   :   0 lpm   :  40 
lsl   :   0 lsr   :   1 mov   :  30 movw  :  30 mul   :   1 muls  :   0 
mulsu :   0 neg   :   2 nop   :   0 or    :   2 ori   :  10 out   :  73 
pop   :   4 push  :   4 rcall : 264 ret   :  59 reti  :   2 rjmp  : 142 
rol   :   0 ror   :   1 sbc   :   2 sbci  :  21 sbi   :  16 sbic  :   6 
sbis  :   7 sbiw  :  33 sbr   :   0 sbrc  :   2 sbrs  :  10 sec   :   0 
seh   :   0 sei   :   2 sen   :   0 ser   :   0 ses   :   0 set   :   0 
sev   :   0 sez   :   0 sleep :   0 spm   :   0 st    :  75 std   :  42 
sts   :   0 sub   :   2 subi  :  41 swap  :   0 tst   :  11 wdr   :  36 

Instructions used: 52 out of 114 (45.6%)

ATmega8L memory use summary [bytes]:
Segment   Begin    End      Code   Data   Used    Size   Use%
---------------------------------------------------------------
[.cseg] 0x000000 0x000e54   3202    466   3668    8192  44.8%
[.dseg] 0x000060 0x0003eb      0    651    651    1119  58.2%
[.eseg] 0x000000 0x00000e      0     14     14     512   2.7%

Assembly complete, 0 errors, 8 warnings
